
build/kernel.bin：     文件格式 elf32-i386


Disassembly of section .text:

c0001500 <main>:
c0001500:	8d 4c 24 04          	lea    0x4(%esp),%ecx
c0001504:	83 e4 f0             	and    $0xfffffff0,%esp
c0001507:	ff 71 fc             	pushl  -0x4(%ecx)
c000150a:	55                   	push   %ebp
c000150b:	89 e5                	mov    %esp,%ebp
c000150d:	51                   	push   %ecx
c000150e:	83 ec 14             	sub    $0x14,%esp
c0001511:	83 ec 0c             	sub    $0xc,%esp
c0001514:	68 60 53 00 c0       	push   $0xc0005360
c0001519:	e8 c3 02 00 00       	call   c00017e1 <_Z8k_printfPKcz>
c000151e:	83 c4 10             	add    $0x10,%esp
c0001521:	e8 e3 0b 00 00       	call   c0002109 <_Z8init_allv>
c0001526:	e8 53 0f 00 00       	call   c000247e <_Z11intr_enablev>
c000152b:	83 ec 0c             	sub    $0xc,%esp
c000152e:	68 00 01 00 00       	push   $0x100
c0001533:	e8 73 24 00 00       	call   c00039ab <_Z10sys_mallocj>
c0001538:	83 c4 10             	add    $0x10,%esp
c000153b:	89 45 f4             	mov    %eax,-0xc(%ebp)
c000153e:	83 ec 0c             	sub    $0xc,%esp
c0001541:	68 00 01 00 00       	push   $0x100
c0001546:	e8 60 24 00 00       	call   c00039ab <_Z10sys_mallocj>
c000154b:	83 c4 10             	add    $0x10,%esp
c000154e:	89 45 f0             	mov    %eax,-0x10(%ebp)
c0001551:	83 ec 0c             	sub    $0xc,%esp
c0001554:	68 00 01 00 00       	push   $0x100
c0001559:	e8 4d 24 00 00       	call   c00039ab <_Z10sys_mallocj>
c000155e:	83 c4 10             	add    $0x10,%esp
c0001561:	89 45 ec             	mov    %eax,-0x14(%ebp)
c0001564:	83 ec 08             	sub    $0x8,%esp
c0001567:	ff 75 f4             	pushl  -0xc(%ebp)
c000156a:	68 6d 53 00 c0       	push   $0xc000536d
c000156f:	e8 b0 3b 00 00       	call   c0005124 <_Z6printfPKcz>
c0001574:	83 c4 10             	add    $0x10,%esp
c0001577:	83 ec 08             	sub    $0x8,%esp
c000157a:	ff 75 f0             	pushl  -0x10(%ebp)
c000157d:	68 7b 53 00 c0       	push   $0xc000537b
c0001582:	e8 9d 3b 00 00       	call   c0005124 <_Z6printfPKcz>
c0001587:	83 c4 10             	add    $0x10,%esp
c000158a:	83 ec 08             	sub    $0x8,%esp
c000158d:	ff 75 ec             	pushl  -0x14(%ebp)
c0001590:	68 89 53 00 c0       	push   $0xc0005389
c0001595:	e8 8a 3b 00 00       	call   c0005124 <_Z6printfPKcz>
c000159a:	83 c4 10             	add    $0x10,%esp
c000159d:	eb fe                	jmp    c000159d <main+0x9d>

c000159f <_Z10clean_linehh>:
c000159f:	55                   	push   %ebp
c00015a0:	89 e5                	mov    %esp,%ebp
c00015a2:	83 ec 18             	sub    $0x18,%esp
c00015a5:	8b 55 08             	mov    0x8(%ebp),%edx
c00015a8:	8b 45 0c             	mov    0xc(%ebp),%eax
c00015ab:	88 55 ec             	mov    %dl,-0x14(%ebp)
c00015ae:	88 45 e8             	mov    %al,-0x18(%ebp)
c00015b1:	0f b6 55 ec          	movzbl -0x14(%ebp),%edx
c00015b5:	89 d0                	mov    %edx,%eax
c00015b7:	c1 e0 02             	shl    $0x2,%eax
c00015ba:	01 d0                	add    %edx,%eax
c00015bc:	c1 e0 05             	shl    $0x5,%eax
c00015bf:	2d 00 80 f4 3f       	sub    $0x3ff48000,%eax
c00015c4:	89 45 f8             	mov    %eax,-0x8(%ebp)
c00015c7:	0f b6 55 e8          	movzbl -0x18(%ebp),%edx
c00015cb:	89 d0                	mov    %edx,%eax
c00015cd:	c1 e0 02             	shl    $0x2,%eax
c00015d0:	01 d0                	add    %edx,%eax
c00015d2:	c1 e0 04             	shl    $0x4,%eax
c00015d5:	89 45 f4             	mov    %eax,-0xc(%ebp)
c00015d8:	c7 45 fc 00 00 00 00 	movl   $0x0,-0x4(%ebp)
c00015df:	8b 45 fc             	mov    -0x4(%ebp),%eax
c00015e2:	3b 45 f4             	cmp    -0xc(%ebp),%eax
c00015e5:	73 14                	jae    c00015fb <_Z10clean_linehh+0x5c>
c00015e7:	8b 45 fc             	mov    -0x4(%ebp),%eax
c00015ea:	8d 14 00             	lea    (%eax,%eax,1),%edx
c00015ed:	8b 45 f8             	mov    -0x8(%ebp),%eax
c00015f0:	01 d0                	add    %edx,%eax
c00015f2:	c6 00 00             	movb   $0x0,(%eax)
c00015f5:	83 45 fc 01          	addl   $0x1,-0x4(%ebp)
c00015f9:	eb e4                	jmp    c00015df <_Z10clean_linehh+0x40>
c00015fb:	90                   	nop
c00015fc:	c9                   	leave  
c00015fd:	c3                   	ret    

c00015fe <_Z10set_cursort>:
c00015fe:	55                   	push   %ebp
c00015ff:	89 e5                	mov    %esp,%ebp
c0001601:	83 ec 14             	sub    $0x14,%esp
c0001604:	8b 45 08             	mov    0x8(%ebp),%eax
c0001607:	66 89 45 ec          	mov    %ax,-0x14(%ebp)
c000160b:	0f b7 45 ec          	movzwl -0x14(%ebp),%eax
c000160f:	66 a3 60 71 00 c0    	mov    %ax,0xc0007160
c0001615:	8d 45 ec             	lea    -0x14(%ebp),%eax
c0001618:	89 45 fc             	mov    %eax,-0x4(%ebp)
c000161b:	8b 45 fc             	mov    -0x4(%ebp),%eax
c000161e:	0f b6 00             	movzbl (%eax),%eax
c0001621:	88 45 fb             	mov    %al,-0x5(%ebp)
c0001624:	8b 45 fc             	mov    -0x4(%ebp),%eax
c0001627:	83 c0 01             	add    $0x1,%eax
c000162a:	0f b6 00             	movzbl (%eax),%eax
c000162d:	88 45 fa             	mov    %al,-0x6(%ebp)
c0001630:	60                   	pusha  
c0001631:	66 ba d4 03          	mov    $0x3d4,%dx
c0001635:	b0 0e                	mov    $0xe,%al
c0001637:	ee                   	out    %al,(%dx)
c0001638:	66 ba d5 03          	mov    $0x3d5,%dx
c000163c:	0f b6 45 fa          	movzbl -0x6(%ebp),%eax
c0001640:	88 c0                	mov    %al,%al
c0001642:	ee                   	out    %al,(%dx)
c0001643:	66 ba d4 03          	mov    $0x3d4,%dx
c0001647:	b0 0f                	mov    $0xf,%al
c0001649:	ee                   	out    %al,(%dx)
c000164a:	66 ba d5 03          	mov    $0x3d5,%dx
c000164e:	0f b6 45 fb          	movzbl -0x5(%ebp),%eax
c0001652:	88 c0                	mov    %al,%al
c0001654:	ee                   	out    %al,(%dx)
c0001655:	61                   	popa   
c0001656:	90                   	nop
c0001657:	c9                   	leave  
c0001658:	c3                   	ret    

c0001659 <_Z9Scrollingv>:
c0001659:	55                   	push   %ebp
c000165a:	89 e5                	mov    %esp,%ebp
c000165c:	83 ec 18             	sub    $0x18,%esp
c000165f:	c7 45 f4 00 80 0b c0 	movl   $0xc00b8000,-0xc(%ebp)
c0001666:	c7 45 f0 a0 80 0b c0 	movl   $0xc00b80a0,-0x10(%ebp)
c000166d:	83 ec 04             	sub    $0x4,%esp
c0001670:	68 00 0f 00 00       	push   $0xf00
c0001675:	ff 75 f0             	pushl  -0x10(%ebp)
c0001678:	ff 75 f4             	pushl  -0xc(%ebp)
c000167b:	e8 66 07 00 00       	call   c0001de6 <_Z6memcpyPvS_j>
c0001680:	83 c4 10             	add    $0x10,%esp
c0001683:	83 ec 08             	sub    $0x8,%esp
c0001686:	6a 01                	push   $0x1
c0001688:	6a 18                	push   $0x18
c000168a:	e8 10 ff ff ff       	call   c000159f <_Z10clean_linehh>
c000168f:	83 c4 10             	add    $0x10,%esp
c0001692:	90                   	nop
c0001693:	c9                   	leave  
c0001694:	c3                   	ret    

c0001695 <_Z8k_printfcRPc>:
c0001695:	55                   	push   %ebp
c0001696:	89 e5                	mov    %esp,%ebp
c0001698:	83 ec 28             	sub    $0x28,%esp
c000169b:	8b 45 08             	mov    0x8(%ebp),%eax
c000169e:	88 45 e4             	mov    %al,-0x1c(%ebp)
c00016a1:	80 7d e4 0a          	cmpb   $0xa,-0x1c(%ebp)
c00016a5:	75 4d                	jne    c00016f4 <_Z8k_printfcRPc+0x5f>
c00016a7:	8b 45 0c             	mov    0xc(%ebp),%eax
c00016aa:	8b 00                	mov    (%eax),%eax
c00016ac:	05 00 80 f4 3f       	add    $0x3ff48000,%eax
c00016b1:	ba cd cc cc cc       	mov    $0xcccccccd,%edx
c00016b6:	f7 e2                	mul    %edx
c00016b8:	89 d0                	mov    %edx,%eax
c00016ba:	c1 e8 07             	shr    $0x7,%eax
c00016bd:	8d 50 01             	lea    0x1(%eax),%edx
c00016c0:	89 d0                	mov    %edx,%eax
c00016c2:	c1 e0 02             	shl    $0x2,%eax
c00016c5:	01 d0                	add    %edx,%eax
c00016c7:	c1 e0 05             	shl    $0x5,%eax
c00016ca:	2d 00 80 f4 3f       	sub    $0x3ff48000,%eax
c00016cf:	89 45 f4             	mov    %eax,-0xc(%ebp)
c00016d2:	81 7d f4 9f 8f 0b c0 	cmpl   $0xc00b8f9f,-0xc(%ebp)
c00016d9:	76 0c                	jbe    c00016e7 <_Z8k_printfcRPc+0x52>
c00016db:	e8 79 ff ff ff       	call   c0001659 <_Z9Scrollingv>
c00016e0:	81 6d f4 a0 00 00 00 	subl   $0xa0,-0xc(%ebp)
c00016e7:	8b 55 f4             	mov    -0xc(%ebp),%edx
c00016ea:	8b 45 0c             	mov    0xc(%ebp),%eax
c00016ed:	89 10                	mov    %edx,(%eax)
c00016ef:	e9 89 00 00 00       	jmp    c000177d <_Z8k_printfcRPc+0xe8>
c00016f4:	80 7d e4 08          	cmpb   $0x8,-0x1c(%ebp)
c00016f8:	75 26                	jne    c0001720 <_Z8k_printfcRPc+0x8b>
c00016fa:	8b 45 0c             	mov    0xc(%ebp),%eax
c00016fd:	8b 00                	mov    (%eax),%eax
c00016ff:	3d 00 80 0b c0       	cmp    $0xc00b8000,%eax
c0001704:	74 76                	je     c000177c <_Z8k_printfcRPc+0xe7>
c0001706:	8b 45 0c             	mov    0xc(%ebp),%eax
c0001709:	8b 00                	mov    (%eax),%eax
c000170b:	83 e8 02             	sub    $0x2,%eax
c000170e:	c6 00 00             	movb   $0x0,(%eax)
c0001711:	8b 45 0c             	mov    0xc(%ebp),%eax
c0001714:	8b 00                	mov    (%eax),%eax
c0001716:	8d 50 fe             	lea    -0x2(%eax),%edx
c0001719:	8b 45 0c             	mov    0xc(%ebp),%eax
c000171c:	89 10                	mov    %edx,(%eax)
c000171e:	eb 5d                	jmp    c000177d <_Z8k_printfcRPc+0xe8>
c0001720:	80 7d e4 09          	cmpb   $0x9,-0x1c(%ebp)
c0001724:	75 22                	jne    c0001748 <_Z8k_printfcRPc+0xb3>
c0001726:	8b 45 0c             	mov    0xc(%ebp),%eax
c0001729:	8b 00                	mov    (%eax),%eax
c000172b:	c6 00 00             	movb   $0x0,(%eax)
c000172e:	8b 45 0c             	mov    0xc(%ebp),%eax
c0001731:	8b 00                	mov    (%eax),%eax
c0001733:	83 c0 02             	add    $0x2,%eax
c0001736:	c6 00 00             	movb   $0x0,(%eax)
c0001739:	8b 45 0c             	mov    0xc(%ebp),%eax
c000173c:	8b 00                	mov    (%eax),%eax
c000173e:	8d 50 04             	lea    0x4(%eax),%edx
c0001741:	8b 45 0c             	mov    0xc(%ebp),%eax
c0001744:	89 10                	mov    %edx,(%eax)
c0001746:	eb 35                	jmp    c000177d <_Z8k_printfcRPc+0xe8>
c0001748:	8b 45 0c             	mov    0xc(%ebp),%eax
c000174b:	8b 00                	mov    (%eax),%eax
c000174d:	0f b6 55 e4          	movzbl -0x1c(%ebp),%edx
c0001751:	88 10                	mov    %dl,(%eax)
c0001753:	8b 45 0c             	mov    0xc(%ebp),%eax
c0001756:	8b 00                	mov    (%eax),%eax
c0001758:	8d 50 02             	lea    0x2(%eax),%edx
c000175b:	8b 45 0c             	mov    0xc(%ebp),%eax
c000175e:	89 10                	mov    %edx,(%eax)
c0001760:	8b 45 0c             	mov    0xc(%ebp),%eax
c0001763:	8b 00                	mov    (%eax),%eax
c0001765:	3d 9f 8f 0b c0       	cmp    $0xc00b8f9f,%eax
c000176a:	76 11                	jbe    c000177d <_Z8k_printfcRPc+0xe8>
c000176c:	e8 e8 fe ff ff       	call   c0001659 <_Z9Scrollingv>
c0001771:	8b 45 0c             	mov    0xc(%ebp),%eax
c0001774:	c7 00 00 8f 0b c0    	movl   $0xc00b8f00,(%eax)
c000177a:	eb 01                	jmp    c000177d <_Z8k_printfcRPc+0xe8>
c000177c:	90                   	nop
c000177d:	c9                   	leave  
c000177e:	c3                   	ret    

c000177f <_Z8k_printfPKcRPc>:
c000177f:	55                   	push   %ebp
c0001780:	89 e5                	mov    %esp,%ebp
c0001782:	83 ec 18             	sub    $0x18,%esp
c0001785:	c7 45 f4 00 00 00 00 	movl   $0x0,-0xc(%ebp)
c000178c:	8b 55 f4             	mov    -0xc(%ebp),%edx
c000178f:	8b 45 08             	mov    0x8(%ebp),%eax
c0001792:	01 d0                	add    %edx,%eax
c0001794:	0f b6 00             	movzbl (%eax),%eax
c0001797:	84 c0                	test   %al,%al
c0001799:	74 43                	je     c00017de <_Z8k_printfPKcRPc+0x5f>
c000179b:	8b 45 0c             	mov    0xc(%ebp),%eax
c000179e:	8b 10                	mov    (%eax),%edx
c00017a0:	8b 45 f4             	mov    -0xc(%ebp),%eax
c00017a3:	8d 48 01             	lea    0x1(%eax),%ecx
c00017a6:	89 4d f4             	mov    %ecx,-0xc(%ebp)
c00017a9:	89 c1                	mov    %eax,%ecx
c00017ab:	8b 45 08             	mov    0x8(%ebp),%eax
c00017ae:	01 c8                	add    %ecx,%eax
c00017b0:	0f b6 00             	movzbl (%eax),%eax
c00017b3:	88 02                	mov    %al,(%edx)
c00017b5:	8b 45 0c             	mov    0xc(%ebp),%eax
c00017b8:	8b 00                	mov    (%eax),%eax
c00017ba:	8d 50 02             	lea    0x2(%eax),%edx
c00017bd:	8b 45 0c             	mov    0xc(%ebp),%eax
c00017c0:	89 10                	mov    %edx,(%eax)
c00017c2:	8b 45 0c             	mov    0xc(%ebp),%eax
c00017c5:	8b 00                	mov    (%eax),%eax
c00017c7:	3d 9f 8f 0b c0       	cmp    $0xc00b8f9f,%eax
c00017cc:	76 be                	jbe    c000178c <_Z8k_printfPKcRPc+0xd>
c00017ce:	e8 86 fe ff ff       	call   c0001659 <_Z9Scrollingv>
c00017d3:	8b 45 0c             	mov    0xc(%ebp),%eax
c00017d6:	c7 00 00 8f 0b c0    	movl   $0xc00b8f00,(%eax)
c00017dc:	eb ae                	jmp    c000178c <_Z8k_printfPKcRPc+0xd>
c00017de:	90                   	nop
c00017df:	c9                   	leave  
c00017e0:	c3                   	ret    

c00017e1 <_Z8k_printfPKcz>:
c00017e1:	55                   	push   %ebp
c00017e2:	89 e5                	mov    %esp,%ebp
c00017e4:	57                   	push   %edi
c00017e5:	83 ec 74             	sub    $0x74,%esp
c00017e8:	0f b7 05 60 71 00 c0 	movzwl 0xc0007160,%eax
c00017ef:	0f b7 c0             	movzwl %ax,%eax
c00017f2:	05 00 c0 05 60       	add    $0x6005c000,%eax
c00017f7:	01 c0                	add    %eax,%eax
c00017f9:	89 45 c8             	mov    %eax,-0x38(%ebp)
c00017fc:	8d 45 0c             	lea    0xc(%ebp),%eax
c00017ff:	89 45 f4             	mov    %eax,-0xc(%ebp)
c0001802:	8b 45 08             	mov    0x8(%ebp),%eax
c0001805:	0f b6 00             	movzbl (%eax),%eax
c0001808:	84 c0                	test   %al,%al
c000180a:	0f 84 13 02 00 00    	je     c0001a23 <_Z8k_printfPKcz+0x242>
c0001810:	8b 45 08             	mov    0x8(%ebp),%eax
c0001813:	0f b6 00             	movzbl (%eax),%eax
c0001816:	3c 25                	cmp    $0x25,%al
c0001818:	0f 85 de 01 00 00    	jne    c00019fc <_Z8k_printfPKcz+0x21b>
c000181e:	8b 45 08             	mov    0x8(%ebp),%eax
c0001821:	83 c0 01             	add    $0x1,%eax
c0001824:	0f b6 00             	movzbl (%eax),%eax
c0001827:	3c 63                	cmp    $0x63,%al
c0001829:	75 22                	jne    c000184d <_Z8k_printfPKcz+0x6c>
c000182b:	8b 45 f4             	mov    -0xc(%ebp),%eax
c000182e:	0f b6 00             	movzbl (%eax),%eax
c0001831:	0f be c0             	movsbl %al,%eax
c0001834:	83 ec 08             	sub    $0x8,%esp
c0001837:	8d 55 c8             	lea    -0x38(%ebp),%edx
c000183a:	52                   	push   %edx
c000183b:	50                   	push   %eax
c000183c:	e8 54 fe ff ff       	call   c0001695 <_Z8k_printfcRPc>
c0001841:	83 c4 10             	add    $0x10,%esp
c0001844:	83 45 f4 04          	addl   $0x4,-0xc(%ebp)
c0001848:	e9 a1 01 00 00       	jmp    c00019ee <_Z8k_printfPKcz+0x20d>
c000184d:	8b 45 08             	mov    0x8(%ebp),%eax
c0001850:	83 c0 01             	add    $0x1,%eax
c0001853:	0f b6 00             	movzbl (%eax),%eax
c0001856:	3c 64                	cmp    $0x64,%al
c0001858:	74 0d                	je     c0001867 <_Z8k_printfPKcz+0x86>
c000185a:	8b 45 08             	mov    0x8(%ebp),%eax
c000185d:	83 c0 01             	add    $0x1,%eax
c0001860:	0f b6 00             	movzbl (%eax),%eax
c0001863:	3c 69                	cmp    $0x69,%al
c0001865:	75 4e                	jne    c00018b5 <_Z8k_printfPKcz+0xd4>
c0001867:	8d 55 88             	lea    -0x78(%ebp),%edx
c000186a:	b8 00 00 00 00       	mov    $0x0,%eax
c000186f:	b9 10 00 00 00       	mov    $0x10,%ecx
c0001874:	89 d7                	mov    %edx,%edi
c0001876:	f3 ab                	rep stos %eax,%es:(%edi)
c0001878:	8b 45 f4             	mov    -0xc(%ebp),%eax
c000187b:	8b 00                	mov    (%eax),%eax
c000187d:	89 45 d4             	mov    %eax,-0x2c(%ebp)
c0001880:	83 ec 04             	sub    $0x4,%esp
c0001883:	6a 0a                	push   $0xa
c0001885:	8d 45 88             	lea    -0x78(%ebp),%eax
c0001888:	50                   	push   %eax
c0001889:	ff 75 d4             	pushl  -0x2c(%ebp)
c000188c:	e8 f1 05 00 00       	call   c0001e82 <_Z4itoaiPci>
c0001891:	83 c4 10             	add    $0x10,%esp
c0001894:	8d 45 88             	lea    -0x78(%ebp),%eax
c0001897:	89 45 d0             	mov    %eax,-0x30(%ebp)
c000189a:	83 ec 08             	sub    $0x8,%esp
c000189d:	8d 45 c8             	lea    -0x38(%ebp),%eax
c00018a0:	50                   	push   %eax
c00018a1:	ff 75 d0             	pushl  -0x30(%ebp)
c00018a4:	e8 d6 fe ff ff       	call   c000177f <_Z8k_printfPKcRPc>
c00018a9:	83 c4 10             	add    $0x10,%esp
c00018ac:	83 45 f4 04          	addl   $0x4,-0xc(%ebp)
c00018b0:	e9 39 01 00 00       	jmp    c00019ee <_Z8k_printfPKcz+0x20d>
c00018b5:	8b 45 08             	mov    0x8(%ebp),%eax
c00018b8:	83 c0 01             	add    $0x1,%eax
c00018bb:	0f b6 00             	movzbl (%eax),%eax
c00018be:	3c 70                	cmp    $0x70,%al
c00018c0:	75 4e                	jne    c0001910 <_Z8k_printfPKcz+0x12f>
c00018c2:	8d 55 88             	lea    -0x78(%ebp),%edx
c00018c5:	b8 00 00 00 00       	mov    $0x0,%eax
c00018ca:	b9 10 00 00 00       	mov    $0x10,%ecx
c00018cf:	89 d7                	mov    %edx,%edi
c00018d1:	f3 ab                	rep stos %eax,%es:(%edi)
c00018d3:	8b 45 f4             	mov    -0xc(%ebp),%eax
c00018d6:	8b 00                	mov    (%eax),%eax
c00018d8:	89 45 f0             	mov    %eax,-0x10(%ebp)
c00018db:	83 ec 04             	sub    $0x4,%esp
c00018de:	6a 10                	push   $0x10
c00018e0:	8d 45 88             	lea    -0x78(%ebp),%eax
c00018e3:	50                   	push   %eax
c00018e4:	ff 75 f0             	pushl  -0x10(%ebp)
c00018e7:	e8 e4 06 00 00       	call   c0001fd0 <_Z4itoajPci>
c00018ec:	83 c4 10             	add    $0x10,%esp
c00018ef:	8d 45 88             	lea    -0x78(%ebp),%eax
c00018f2:	89 45 ec             	mov    %eax,-0x14(%ebp)
c00018f5:	83 ec 08             	sub    $0x8,%esp
c00018f8:	8d 45 c8             	lea    -0x38(%ebp),%eax
c00018fb:	50                   	push   %eax
c00018fc:	ff 75 ec             	pushl  -0x14(%ebp)
c00018ff:	e8 7b fe ff ff       	call   c000177f <_Z8k_printfPKcRPc>
c0001904:	83 c4 10             	add    $0x10,%esp
c0001907:	83 45 f4 04          	addl   $0x4,-0xc(%ebp)
c000190b:	e9 de 00 00 00       	jmp    c00019ee <_Z8k_printfPKcz+0x20d>
c0001910:	8b 45 08             	mov    0x8(%ebp),%eax
c0001913:	83 c0 01             	add    $0x1,%eax
c0001916:	0f b6 00             	movzbl (%eax),%eax
c0001919:	3c 6f                	cmp    $0x6f,%al
c000191b:	75 4e                	jne    c000196b <_Z8k_printfPKcz+0x18a>
c000191d:	8d 55 88             	lea    -0x78(%ebp),%edx
c0001920:	b8 00 00 00 00       	mov    $0x0,%eax
c0001925:	b9 10 00 00 00       	mov    $0x10,%ecx
c000192a:	89 d7                	mov    %edx,%edi
c000192c:	f3 ab                	rep stos %eax,%es:(%edi)
c000192e:	8b 45 f4             	mov    -0xc(%ebp),%eax
c0001931:	8b 00                	mov    (%eax),%eax
c0001933:	89 45 e8             	mov    %eax,-0x18(%ebp)
c0001936:	83 ec 04             	sub    $0x4,%esp
c0001939:	6a 08                	push   $0x8
c000193b:	8d 45 88             	lea    -0x78(%ebp),%eax
c000193e:	50                   	push   %eax
c000193f:	ff 75 e8             	pushl  -0x18(%ebp)
c0001942:	e8 3b 05 00 00       	call   c0001e82 <_Z4itoaiPci>
c0001947:	83 c4 10             	add    $0x10,%esp
c000194a:	8d 45 88             	lea    -0x78(%ebp),%eax
c000194d:	89 45 e4             	mov    %eax,-0x1c(%ebp)
c0001950:	83 ec 08             	sub    $0x8,%esp
c0001953:	8d 45 c8             	lea    -0x38(%ebp),%eax
c0001956:	50                   	push   %eax
c0001957:	ff 75 e4             	pushl  -0x1c(%ebp)
c000195a:	e8 20 fe ff ff       	call   c000177f <_Z8k_printfPKcRPc>
c000195f:	83 c4 10             	add    $0x10,%esp
c0001962:	83 45 f4 04          	addl   $0x4,-0xc(%ebp)
c0001966:	e9 83 00 00 00       	jmp    c00019ee <_Z8k_printfPKcz+0x20d>
c000196b:	8b 45 08             	mov    0x8(%ebp),%eax
c000196e:	83 c0 01             	add    $0x1,%eax
c0001971:	0f b6 00             	movzbl (%eax),%eax
c0001974:	3c 78                	cmp    $0x78,%al
c0001976:	75 4b                	jne    c00019c3 <_Z8k_printfPKcz+0x1e2>
c0001978:	8d 55 88             	lea    -0x78(%ebp),%edx
c000197b:	b8 00 00 00 00       	mov    $0x0,%eax
c0001980:	b9 10 00 00 00       	mov    $0x10,%ecx
c0001985:	89 d7                	mov    %edx,%edi
c0001987:	f3 ab                	rep stos %eax,%es:(%edi)
c0001989:	8b 45 f4             	mov    -0xc(%ebp),%eax
c000198c:	8b 00                	mov    (%eax),%eax
c000198e:	89 45 e0             	mov    %eax,-0x20(%ebp)
c0001991:	83 ec 04             	sub    $0x4,%esp
c0001994:	6a 10                	push   $0x10
c0001996:	8d 45 88             	lea    -0x78(%ebp),%eax
c0001999:	50                   	push   %eax
c000199a:	ff 75 e0             	pushl  -0x20(%ebp)
c000199d:	e8 e0 04 00 00       	call   c0001e82 <_Z4itoaiPci>
c00019a2:	83 c4 10             	add    $0x10,%esp
c00019a5:	8d 45 88             	lea    -0x78(%ebp),%eax
c00019a8:	89 45 dc             	mov    %eax,-0x24(%ebp)
c00019ab:	83 ec 08             	sub    $0x8,%esp
c00019ae:	8d 45 c8             	lea    -0x38(%ebp),%eax
c00019b1:	50                   	push   %eax
c00019b2:	ff 75 dc             	pushl  -0x24(%ebp)
c00019b5:	e8 c5 fd ff ff       	call   c000177f <_Z8k_printfPKcRPc>
c00019ba:	83 c4 10             	add    $0x10,%esp
c00019bd:	83 45 f4 04          	addl   $0x4,-0xc(%ebp)
c00019c1:	eb 2b                	jmp    c00019ee <_Z8k_printfPKcz+0x20d>
c00019c3:	8b 45 08             	mov    0x8(%ebp),%eax
c00019c6:	83 c0 01             	add    $0x1,%eax
c00019c9:	0f b6 00             	movzbl (%eax),%eax
c00019cc:	3c 73                	cmp    $0x73,%al
c00019ce:	75 1e                	jne    c00019ee <_Z8k_printfPKcz+0x20d>
c00019d0:	8b 45 f4             	mov    -0xc(%ebp),%eax
c00019d3:	8b 00                	mov    (%eax),%eax
c00019d5:	89 45 d8             	mov    %eax,-0x28(%ebp)
c00019d8:	83 ec 08             	sub    $0x8,%esp
c00019db:	8d 45 c8             	lea    -0x38(%ebp),%eax
c00019de:	50                   	push   %eax
c00019df:	ff 75 d8             	pushl  -0x28(%ebp)
c00019e2:	e8 98 fd ff ff       	call   c000177f <_Z8k_printfPKcRPc>
c00019e7:	83 c4 10             	add    $0x10,%esp
c00019ea:	83 45 f4 04          	addl   $0x4,-0xc(%ebp)
c00019ee:	8b 45 08             	mov    0x8(%ebp),%eax
c00019f1:	83 c0 02             	add    $0x2,%eax
c00019f4:	89 45 08             	mov    %eax,0x8(%ebp)
c00019f7:	e9 06 fe ff ff       	jmp    c0001802 <_Z8k_printfPKcz+0x21>
c00019fc:	8b 45 08             	mov    0x8(%ebp),%eax
c00019ff:	0f b6 00             	movzbl (%eax),%eax
c0001a02:	0f be c0             	movsbl %al,%eax
c0001a05:	83 ec 08             	sub    $0x8,%esp
c0001a08:	8d 55 c8             	lea    -0x38(%ebp),%edx
c0001a0b:	52                   	push   %edx
c0001a0c:	50                   	push   %eax
c0001a0d:	e8 83 fc ff ff       	call   c0001695 <_Z8k_printfcRPc>
c0001a12:	83 c4 10             	add    $0x10,%esp
c0001a15:	8b 45 08             	mov    0x8(%ebp),%eax
c0001a18:	83 c0 01             	add    $0x1,%eax
c0001a1b:	89 45 08             	mov    %eax,0x8(%ebp)
c0001a1e:	e9 df fd ff ff       	jmp    c0001802 <_Z8k_printfPKcz+0x21>
c0001a23:	8b 45 c8             	mov    -0x38(%ebp),%eax
c0001a26:	05 00 80 f4 3f       	add    $0x3ff48000,%eax
c0001a2b:	d1 e8                	shr    %eax
c0001a2d:	66 89 45 ce          	mov    %ax,-0x32(%ebp)
c0001a31:	0f b7 45 ce          	movzwl -0x32(%ebp),%eax
c0001a35:	83 ec 0c             	sub    $0xc,%esp
c0001a38:	50                   	push   %eax
c0001a39:	e8 c0 fb ff ff       	call   c00015fe <_Z10set_cursort>
c0001a3e:	83 c4 10             	add    $0x10,%esp
c0001a41:	90                   	nop
c0001a42:	8b 7d fc             	mov    -0x4(%ebp),%edi
c0001a45:	c9                   	leave  
c0001a46:	c3                   	ret    
c0001a47:	90                   	nop

c0001a48 <_ZN6stringC1ERPKc>:
c0001a48:	55                   	push   %ebp
c0001a49:	89 e5                	mov    %esp,%ebp
c0001a4b:	53                   	push   %ebx
c0001a4c:	83 ec 10             	sub    $0x10,%esp
c0001a4f:	8b 45 08             	mov    0x8(%ebp),%eax
c0001a52:	c7 00 00 00 00 00    	movl   $0x0,(%eax)
c0001a58:	c7 45 f8 00 00 00 00 	movl   $0x0,-0x8(%ebp)
c0001a5f:	8b 45 0c             	mov    0xc(%ebp),%eax
c0001a62:	8b 10                	mov    (%eax),%edx
c0001a64:	8b 45 f8             	mov    -0x8(%ebp),%eax
c0001a67:	01 d0                	add    %edx,%eax
c0001a69:	0f b6 00             	movzbl (%eax),%eax
c0001a6c:	84 c0                	test   %al,%al
c0001a6e:	74 29                	je     c0001a99 <_ZN6stringC1ERPKc+0x51>
c0001a70:	8b 45 08             	mov    0x8(%ebp),%eax
c0001a73:	8b 00                	mov    (%eax),%eax
c0001a75:	8d 48 01             	lea    0x1(%eax),%ecx
c0001a78:	8b 55 08             	mov    0x8(%ebp),%edx
c0001a7b:	89 0a                	mov    %ecx,(%edx)
c0001a7d:	8b 55 0c             	mov    0xc(%ebp),%edx
c0001a80:	8b 1a                	mov    (%edx),%ebx
c0001a82:	8b 55 f8             	mov    -0x8(%ebp),%edx
c0001a85:	8d 4a 01             	lea    0x1(%edx),%ecx
c0001a88:	89 4d f8             	mov    %ecx,-0x8(%ebp)
c0001a8b:	01 da                	add    %ebx,%edx
c0001a8d:	0f b6 0a             	movzbl (%edx),%ecx
c0001a90:	8b 55 08             	mov    0x8(%ebp),%edx
c0001a93:	88 4c 02 04          	mov    %cl,0x4(%edx,%eax,1)
c0001a97:	eb c6                	jmp    c0001a5f <_ZN6stringC1ERPKc+0x17>
c0001a99:	8b 45 08             	mov    0x8(%ebp),%eax
c0001a9c:	8b 00                	mov    (%eax),%eax
c0001a9e:	8b 55 08             	mov    0x8(%ebp),%edx
c0001aa1:	c6 44 02 04 00       	movb   $0x0,0x4(%edx,%eax,1)
c0001aa6:	90                   	nop
c0001aa7:	83 c4 10             	add    $0x10,%esp
c0001aaa:	5b                   	pop    %ebx
c0001aab:	5d                   	pop    %ebp
c0001aac:	c3                   	ret    
c0001aad:	90                   	nop

c0001aae <_ZN6stringC1ERKS_>:
c0001aae:	55                   	push   %ebp
c0001aaf:	89 e5                	mov    %esp,%ebp
c0001ab1:	83 ec 18             	sub    $0x18,%esp
c0001ab4:	83 ec 0c             	sub    $0xc,%esp
c0001ab7:	ff 75 0c             	pushl  0xc(%ebp)
c0001aba:	e8 3f 00 00 00       	call   c0001afe <_ZNK6string4sizeEv>
c0001abf:	83 c4 10             	add    $0x10,%esp
c0001ac2:	89 c2                	mov    %eax,%edx
c0001ac4:	8b 45 08             	mov    0x8(%ebp),%eax
c0001ac7:	89 10                	mov    %edx,(%eax)
c0001ac9:	c7 45 f4 00 00 00 00 	movl   $0x0,-0xc(%ebp)
c0001ad0:	8b 45 08             	mov    0x8(%ebp),%eax
c0001ad3:	8b 00                	mov    (%eax),%eax
c0001ad5:	3b 45 f4             	cmp    -0xc(%ebp),%eax
c0001ad8:	76 21                	jbe    c0001afb <_ZN6stringC1ERKS_+0x4d>
c0001ada:	8b 55 0c             	mov    0xc(%ebp),%edx
c0001add:	8b 45 f4             	mov    -0xc(%ebp),%eax
c0001ae0:	01 d0                	add    %edx,%eax
c0001ae2:	83 c0 04             	add    $0x4,%eax
c0001ae5:	0f b6 00             	movzbl (%eax),%eax
c0001ae8:	8b 4d 08             	mov    0x8(%ebp),%ecx
c0001aeb:	8b 55 f4             	mov    -0xc(%ebp),%edx
c0001aee:	01 ca                	add    %ecx,%edx
c0001af0:	83 c2 04             	add    $0x4,%edx
c0001af3:	88 02                	mov    %al,(%edx)
c0001af5:	83 45 f4 01          	addl   $0x1,-0xc(%ebp)
c0001af9:	eb d5                	jmp    c0001ad0 <_ZN6stringC1ERKS_+0x22>
c0001afb:	90                   	nop
c0001afc:	c9                   	leave  
c0001afd:	c3                   	ret    

c0001afe <_ZNK6string4sizeEv>:
c0001afe:	55                   	push   %ebp
c0001aff:	89 e5                	mov    %esp,%ebp
c0001b01:	8b 45 08             	mov    0x8(%ebp),%eax
c0001b04:	8b 00                	mov    (%eax),%eax
c0001b06:	5d                   	pop    %ebp
c0001b07:	c3                   	ret    

c0001b08 <_ZeqRK6stringS1_>:
c0001b08:	55                   	push   %ebp
c0001b09:	89 e5                	mov    %esp,%ebp
c0001b0b:	53                   	push   %ebx
c0001b0c:	83 ec 10             	sub    $0x10,%esp
c0001b0f:	ff 75 08             	pushl  0x8(%ebp)
c0001b12:	e8 e7 ff ff ff       	call   c0001afe <_ZNK6string4sizeEv>
c0001b17:	83 c4 04             	add    $0x4,%esp
c0001b1a:	89 c3                	mov    %eax,%ebx
c0001b1c:	ff 75 0c             	pushl  0xc(%ebp)
c0001b1f:	e8 da ff ff ff       	call   c0001afe <_ZNK6string4sizeEv>
c0001b24:	83 c4 04             	add    $0x4,%esp
c0001b27:	39 c3                	cmp    %eax,%ebx
c0001b29:	0f 95 c0             	setne  %al
c0001b2c:	84 c0                	test   %al,%al
c0001b2e:	74 07                	je     c0001b37 <_ZeqRK6stringS1_+0x2f>
c0001b30:	b8 00 00 00 00       	mov    $0x0,%eax
c0001b35:	eb 4f                	jmp    c0001b86 <_ZeqRK6stringS1_+0x7e>
c0001b37:	ff 75 08             	pushl  0x8(%ebp)
c0001b3a:	e8 bf ff ff ff       	call   c0001afe <_ZNK6string4sizeEv>
c0001b3f:	83 c4 04             	add    $0x4,%esp
c0001b42:	89 45 f4             	mov    %eax,-0xc(%ebp)
c0001b45:	c7 45 f8 00 00 00 00 	movl   $0x0,-0x8(%ebp)
c0001b4c:	8b 45 f8             	mov    -0x8(%ebp),%eax
c0001b4f:	3b 45 f4             	cmp    -0xc(%ebp),%eax
c0001b52:	7d 2d                	jge    c0001b81 <_ZeqRK6stringS1_+0x79>
c0001b54:	8b 55 08             	mov    0x8(%ebp),%edx
c0001b57:	8b 45 f8             	mov    -0x8(%ebp),%eax
c0001b5a:	01 d0                	add    %edx,%eax
c0001b5c:	83 c0 04             	add    $0x4,%eax
c0001b5f:	0f b6 10             	movzbl (%eax),%edx
c0001b62:	8b 4d 0c             	mov    0xc(%ebp),%ecx
c0001b65:	8b 45 f8             	mov    -0x8(%ebp),%eax
c0001b68:	01 c8                	add    %ecx,%eax
c0001b6a:	83 c0 04             	add    $0x4,%eax
c0001b6d:	0f b6 00             	movzbl (%eax),%eax
c0001b70:	38 c2                	cmp    %al,%dl
c0001b72:	74 07                	je     c0001b7b <_ZeqRK6stringS1_+0x73>
c0001b74:	b8 00 00 00 00       	mov    $0x0,%eax
c0001b79:	eb 0b                	jmp    c0001b86 <_ZeqRK6stringS1_+0x7e>
c0001b7b:	83 45 f8 01          	addl   $0x1,-0x8(%ebp)
c0001b7f:	eb cb                	jmp    c0001b4c <_ZeqRK6stringS1_+0x44>
c0001b81:	b8 01 00 00 00       	mov    $0x1,%eax
c0001b86:	8b 5d fc             	mov    -0x4(%ebp),%ebx
c0001b89:	c9                   	leave  
c0001b8a:	c3                   	ret    

c0001b8b <_ZeqRK6stringPKc>:
c0001b8b:	55                   	push   %ebp
c0001b8c:	89 e5                	mov    %esp,%ebp
c0001b8e:	83 ec 10             	sub    $0x10,%esp
c0001b91:	ff 75 08             	pushl  0x8(%ebp)
c0001b94:	e8 65 ff ff ff       	call   c0001afe <_ZNK6string4sizeEv>
c0001b99:	83 c4 04             	add    $0x4,%esp
c0001b9c:	89 45 f8             	mov    %eax,-0x8(%ebp)
c0001b9f:	c7 45 fc 00 00 00 00 	movl   $0x0,-0x4(%ebp)
c0001ba6:	8b 45 fc             	mov    -0x4(%ebp),%eax
c0001ba9:	3b 45 f8             	cmp    -0x8(%ebp),%eax
c0001bac:	7d 39                	jge    c0001be7 <_ZeqRK6stringPKc+0x5c>
c0001bae:	8b 55 fc             	mov    -0x4(%ebp),%edx
c0001bb1:	8b 45 0c             	mov    0xc(%ebp),%eax
c0001bb4:	01 d0                	add    %edx,%eax
c0001bb6:	0f b6 00             	movzbl (%eax),%eax
c0001bb9:	84 c0                	test   %al,%al
c0001bbb:	74 2a                	je     c0001be7 <_ZeqRK6stringPKc+0x5c>
c0001bbd:	8b 55 08             	mov    0x8(%ebp),%edx
c0001bc0:	8b 45 fc             	mov    -0x4(%ebp),%eax
c0001bc3:	01 d0                	add    %edx,%eax
c0001bc5:	83 c0 04             	add    $0x4,%eax
c0001bc8:	0f b6 10             	movzbl (%eax),%edx
c0001bcb:	8b 4d fc             	mov    -0x4(%ebp),%ecx
c0001bce:	8b 45 0c             	mov    0xc(%ebp),%eax
c0001bd1:	01 c8                	add    %ecx,%eax
c0001bd3:	0f b6 00             	movzbl (%eax),%eax
c0001bd6:	38 c2                	cmp    %al,%dl
c0001bd8:	74 07                	je     c0001be1 <_ZeqRK6stringPKc+0x56>
c0001bda:	b8 00 00 00 00       	mov    $0x0,%eax
c0001bdf:	eb 1a                	jmp    c0001bfb <_ZeqRK6stringPKc+0x70>
c0001be1:	83 45 fc 01          	addl   $0x1,-0x4(%ebp)
c0001be5:	eb bf                	jmp    c0001ba6 <_ZeqRK6stringPKc+0x1b>
c0001be7:	8b 45 fc             	mov    -0x4(%ebp),%eax
c0001bea:	3b 45 f8             	cmp    -0x8(%ebp),%eax
c0001bed:	75 07                	jne    c0001bf6 <_ZeqRK6stringPKc+0x6b>
c0001bef:	b8 01 00 00 00       	mov    $0x1,%eax
c0001bf4:	eb 05                	jmp    c0001bfb <_ZeqRK6stringPKc+0x70>
c0001bf6:	b8 00 00 00 00       	mov    $0x0,%eax
c0001bfb:	c9                   	leave  
c0001bfc:	c3                   	ret    

c0001bfd <_ZgtRK6stringS1_>:
c0001bfd:	55                   	push   %ebp
c0001bfe:	89 e5                	mov    %esp,%ebp
c0001c00:	53                   	push   %ebx
c0001c01:	83 ec 10             	sub    $0x10,%esp
c0001c04:	ff 75 08             	pushl  0x8(%ebp)
c0001c07:	e8 f2 fe ff ff       	call   c0001afe <_ZNK6string4sizeEv>
c0001c0c:	83 c4 04             	add    $0x4,%esp
c0001c0f:	89 c3                	mov    %eax,%ebx
c0001c11:	ff 75 0c             	pushl  0xc(%ebp)
c0001c14:	e8 e5 fe ff ff       	call   c0001afe <_ZNK6string4sizeEv>
c0001c19:	83 c4 04             	add    $0x4,%esp
c0001c1c:	39 c3                	cmp    %eax,%ebx
c0001c1e:	0f 97 c0             	seta   %al
c0001c21:	84 c0                	test   %al,%al
c0001c23:	74 0a                	je     c0001c2f <_ZgtRK6stringS1_+0x32>
c0001c25:	b8 01 00 00 00       	mov    $0x1,%eax
c0001c2a:	e9 93 00 00 00       	jmp    c0001cc2 <_ZgtRK6stringS1_+0xc5>
c0001c2f:	ff 75 08             	pushl  0x8(%ebp)
c0001c32:	e8 c7 fe ff ff       	call   c0001afe <_ZNK6string4sizeEv>
c0001c37:	83 c4 04             	add    $0x4,%esp
c0001c3a:	89 c3                	mov    %eax,%ebx
c0001c3c:	ff 75 0c             	pushl  0xc(%ebp)
c0001c3f:	e8 ba fe ff ff       	call   c0001afe <_ZNK6string4sizeEv>
c0001c44:	83 c4 04             	add    $0x4,%esp
c0001c47:	39 c3                	cmp    %eax,%ebx
c0001c49:	0f 92 c0             	setb   %al
c0001c4c:	84 c0                	test   %al,%al
c0001c4e:	74 07                	je     c0001c57 <_ZgtRK6stringS1_+0x5a>
c0001c50:	b8 00 00 00 00       	mov    $0x0,%eax
c0001c55:	eb 6b                	jmp    c0001cc2 <_ZgtRK6stringS1_+0xc5>
c0001c57:	ff 75 08             	pushl  0x8(%ebp)
c0001c5a:	e8 9f fe ff ff       	call   c0001afe <_ZNK6string4sizeEv>
c0001c5f:	83 c4 04             	add    $0x4,%esp
c0001c62:	89 45 f4             	mov    %eax,-0xc(%ebp)
c0001c65:	c7 45 f8 00 00 00 00 	movl   $0x0,-0x8(%ebp)
c0001c6c:	8b 45 f8             	mov    -0x8(%ebp),%eax
c0001c6f:	3b 45 f4             	cmp    -0xc(%ebp),%eax
c0001c72:	7d 49                	jge    c0001cbd <_ZgtRK6stringS1_+0xc0>
c0001c74:	8b 55 08             	mov    0x8(%ebp),%edx
c0001c77:	8b 45 f8             	mov    -0x8(%ebp),%eax
c0001c7a:	01 d0                	add    %edx,%eax
c0001c7c:	83 c0 04             	add    $0x4,%eax
c0001c7f:	0f b6 10             	movzbl (%eax),%edx
c0001c82:	8b 4d 0c             	mov    0xc(%ebp),%ecx
c0001c85:	8b 45 f8             	mov    -0x8(%ebp),%eax
c0001c88:	01 c8                	add    %ecx,%eax
c0001c8a:	83 c0 04             	add    $0x4,%eax
c0001c8d:	0f b6 00             	movzbl (%eax),%eax
c0001c90:	38 c2                	cmp    %al,%dl
c0001c92:	74 23                	je     c0001cb7 <_ZgtRK6stringS1_+0xba>
c0001c94:	8b 55 08             	mov    0x8(%ebp),%edx
c0001c97:	8b 45 f8             	mov    -0x8(%ebp),%eax
c0001c9a:	01 d0                	add    %edx,%eax
c0001c9c:	83 c0 04             	add    $0x4,%eax
c0001c9f:	0f b6 10             	movzbl (%eax),%edx
c0001ca2:	8b 4d 0c             	mov    0xc(%ebp),%ecx
c0001ca5:	8b 45 f8             	mov    -0x8(%ebp),%eax
c0001ca8:	01 c8                	add    %ecx,%eax
c0001caa:	83 c0 04             	add    $0x4,%eax
c0001cad:	0f b6 00             	movzbl (%eax),%eax
c0001cb0:	38 c2                	cmp    %al,%dl
c0001cb2:	0f 9f c0             	setg   %al
c0001cb5:	eb 0b                	jmp    c0001cc2 <_ZgtRK6stringS1_+0xc5>
c0001cb7:	83 45 f8 01          	addl   $0x1,-0x8(%ebp)
c0001cbb:	eb af                	jmp    c0001c6c <_ZgtRK6stringS1_+0x6f>
c0001cbd:	b8 00 00 00 00       	mov    $0x0,%eax
c0001cc2:	8b 5d fc             	mov    -0x4(%ebp),%ebx
c0001cc5:	c9                   	leave  
c0001cc6:	c3                   	ret    

c0001cc7 <_ZltRK6stringS1_>:
c0001cc7:	55                   	push   %ebp
c0001cc8:	89 e5                	mov    %esp,%ebp
c0001cca:	53                   	push   %ebx
c0001ccb:	83 ec 10             	sub    $0x10,%esp
c0001cce:	ff 75 08             	pushl  0x8(%ebp)
c0001cd1:	e8 28 fe ff ff       	call   c0001afe <_ZNK6string4sizeEv>
c0001cd6:	83 c4 04             	add    $0x4,%esp
c0001cd9:	89 c3                	mov    %eax,%ebx
c0001cdb:	ff 75 0c             	pushl  0xc(%ebp)
c0001cde:	e8 1b fe ff ff       	call   c0001afe <_ZNK6string4sizeEv>
c0001ce3:	83 c4 04             	add    $0x4,%esp
c0001ce6:	39 c3                	cmp    %eax,%ebx
c0001ce8:	0f 92 c0             	setb   %al
c0001ceb:	84 c0                	test   %al,%al
c0001ced:	74 0a                	je     c0001cf9 <_ZltRK6stringS1_+0x32>
c0001cef:	b8 01 00 00 00       	mov    $0x1,%eax
c0001cf4:	e9 93 00 00 00       	jmp    c0001d8c <_ZltRK6stringS1_+0xc5>
c0001cf9:	ff 75 08             	pushl  0x8(%ebp)
c0001cfc:	e8 fd fd ff ff       	call   c0001afe <_ZNK6string4sizeEv>
c0001d01:	83 c4 04             	add    $0x4,%esp
c0001d04:	89 c3                	mov    %eax,%ebx
c0001d06:	ff 75 0c             	pushl  0xc(%ebp)
c0001d09:	e8 f0 fd ff ff       	call   c0001afe <_ZNK6string4sizeEv>
c0001d0e:	83 c4 04             	add    $0x4,%esp
c0001d11:	39 c3                	cmp    %eax,%ebx
c0001d13:	0f 97 c0             	seta   %al
c0001d16:	84 c0                	test   %al,%al
c0001d18:	74 07                	je     c0001d21 <_ZltRK6stringS1_+0x5a>
c0001d1a:	b8 00 00 00 00       	mov    $0x0,%eax
c0001d1f:	eb 6b                	jmp    c0001d8c <_ZltRK6stringS1_+0xc5>
c0001d21:	ff 75 08             	pushl  0x8(%ebp)
c0001d24:	e8 d5 fd ff ff       	call   c0001afe <_ZNK6string4sizeEv>
c0001d29:	83 c4 04             	add    $0x4,%esp
c0001d2c:	89 45 f4             	mov    %eax,-0xc(%ebp)
c0001d2f:	c7 45 f8 00 00 00 00 	movl   $0x0,-0x8(%ebp)
c0001d36:	8b 45 f8             	mov    -0x8(%ebp),%eax
c0001d39:	3b 45 f4             	cmp    -0xc(%ebp),%eax
c0001d3c:	7d 49                	jge    c0001d87 <_ZltRK6stringS1_+0xc0>
c0001d3e:	8b 55 08             	mov    0x8(%ebp),%edx
c0001d41:	8b 45 f8             	mov    -0x8(%ebp),%eax
c0001d44:	01 d0                	add    %edx,%eax
c0001d46:	83 c0 04             	add    $0x4,%eax
c0001d49:	0f b6 10             	movzbl (%eax),%edx
c0001d4c:	8b 4d 0c             	mov    0xc(%ebp),%ecx
c0001d4f:	8b 45 f8             	mov    -0x8(%ebp),%eax
c0001d52:	01 c8                	add    %ecx,%eax
c0001d54:	83 c0 04             	add    $0x4,%eax
c0001d57:	0f b6 00             	movzbl (%eax),%eax
c0001d5a:	38 c2                	cmp    %al,%dl
c0001d5c:	74 23                	je     c0001d81 <_ZltRK6stringS1_+0xba>
c0001d5e:	8b 55 08             	mov    0x8(%ebp),%edx
c0001d61:	8b 45 f8             	mov    -0x8(%ebp),%eax
c0001d64:	01 d0                	add    %edx,%eax
c0001d66:	83 c0 04             	add    $0x4,%eax
c0001d69:	0f b6 10             	movzbl (%eax),%edx
c0001d6c:	8b 4d 0c             	mov    0xc(%ebp),%ecx
c0001d6f:	8b 45 f8             	mov    -0x8(%ebp),%eax
c0001d72:	01 c8                	add    %ecx,%eax
c0001d74:	83 c0 04             	add    $0x4,%eax
c0001d77:	0f b6 00             	movzbl (%eax),%eax
c0001d7a:	38 c2                	cmp    %al,%dl
c0001d7c:	0f 9c c0             	setl   %al
c0001d7f:	eb 0b                	jmp    c0001d8c <_ZltRK6stringS1_+0xc5>
c0001d81:	83 45 f8 01          	addl   $0x1,-0x8(%ebp)
c0001d85:	eb af                	jmp    c0001d36 <_ZltRK6stringS1_+0x6f>
c0001d87:	b8 00 00 00 00       	mov    $0x0,%eax
c0001d8c:	8b 5d fc             	mov    -0x4(%ebp),%ebx
c0001d8f:	c9                   	leave  
c0001d90:	c3                   	ret    
c0001d91:	90                   	nop

c0001d92 <_ZN6string5c_strEv>:
c0001d92:	55                   	push   %ebp
c0001d93:	89 e5                	mov    %esp,%ebp
c0001d95:	8b 45 08             	mov    0x8(%ebp),%eax
c0001d98:	83 c0 04             	add    $0x4,%eax
c0001d9b:	5d                   	pop    %ebp
c0001d9c:	c3                   	ret    
c0001d9d:	90                   	nop

c0001d9e <_ZN6stringixEj>:
c0001d9e:	55                   	push   %ebp
c0001d9f:	89 e5                	mov    %esp,%ebp
c0001da1:	8b 55 08             	mov    0x8(%ebp),%edx
c0001da4:	8b 45 0c             	mov    0xc(%ebp),%eax
c0001da7:	01 d0                	add    %edx,%eax
c0001da9:	83 c0 04             	add    $0x4,%eax
c0001dac:	5d                   	pop    %ebp
c0001dad:	c3                   	ret    

c0001dae <_Z6memsetPvhj>:
c0001dae:	55                   	push   %ebp
c0001daf:	89 e5                	mov    %esp,%ebp
c0001db1:	83 ec 14             	sub    $0x14,%esp
c0001db4:	8b 45 0c             	mov    0xc(%ebp),%eax
c0001db7:	88 45 ec             	mov    %al,-0x14(%ebp)
c0001dba:	8b 45 08             	mov    0x8(%ebp),%eax
c0001dbd:	89 45 f8             	mov    %eax,-0x8(%ebp)
c0001dc0:	c7 45 fc 00 00 00 00 	movl   $0x0,-0x4(%ebp)
c0001dc7:	8b 45 fc             	mov    -0x4(%ebp),%eax
c0001dca:	3b 45 10             	cmp    0x10(%ebp),%eax
c0001dcd:	73 14                	jae    c0001de3 <_Z6memsetPvhj+0x35>
c0001dcf:	8b 55 f8             	mov    -0x8(%ebp),%edx
c0001dd2:	8b 45 fc             	mov    -0x4(%ebp),%eax
c0001dd5:	01 c2                	add    %eax,%edx
c0001dd7:	0f b6 45 ec          	movzbl -0x14(%ebp),%eax
c0001ddb:	88 02                	mov    %al,(%edx)
c0001ddd:	83 45 fc 01          	addl   $0x1,-0x4(%ebp)
c0001de1:	eb e4                	jmp    c0001dc7 <_Z6memsetPvhj+0x19>
c0001de3:	90                   	nop
c0001de4:	c9                   	leave  
c0001de5:	c3                   	ret    

c0001de6 <_Z6memcpyPvS_j>:
c0001de6:	55                   	push   %ebp
c0001de7:	89 e5                	mov    %esp,%ebp
c0001de9:	83 ec 10             	sub    $0x10,%esp
c0001dec:	8b 45 08             	mov    0x8(%ebp),%eax
c0001def:	89 45 f8             	mov    %eax,-0x8(%ebp)
c0001df2:	8b 45 0c             	mov    0xc(%ebp),%eax
c0001df5:	89 45 f4             	mov    %eax,-0xc(%ebp)
c0001df8:	c7 45 fc 00 00 00 00 	movl   $0x0,-0x4(%ebp)
c0001dff:	8b 45 fc             	mov    -0x4(%ebp),%eax
c0001e02:	3b 45 10             	cmp    0x10(%ebp),%eax
c0001e05:	73 1b                	jae    c0001e22 <_Z6memcpyPvS_j+0x3c>
c0001e07:	8b 55 f8             	mov    -0x8(%ebp),%edx
c0001e0a:	8b 45 fc             	mov    -0x4(%ebp),%eax
c0001e0d:	01 c2                	add    %eax,%edx
c0001e0f:	8b 4d f4             	mov    -0xc(%ebp),%ecx
c0001e12:	8b 45 fc             	mov    -0x4(%ebp),%eax
c0001e15:	01 c8                	add    %ecx,%eax
c0001e17:	0f b6 00             	movzbl (%eax),%eax
c0001e1a:	88 02                	mov    %al,(%edx)
c0001e1c:	83 45 fc 01          	addl   $0x1,-0x4(%ebp)
c0001e20:	eb dd                	jmp    c0001dff <_Z6memcpyPvS_j+0x19>
c0001e22:	90                   	nop
c0001e23:	c9                   	leave  
c0001e24:	c3                   	ret    

c0001e25 <_Z6strcpyPcPKc>:
c0001e25:	55                   	push   %ebp
c0001e26:	89 e5                	mov    %esp,%ebp
c0001e28:	83 ec 10             	sub    $0x10,%esp
c0001e2b:	8b 45 08             	mov    0x8(%ebp),%eax
c0001e2e:	89 45 fc             	mov    %eax,-0x4(%ebp)
c0001e31:	8b 45 08             	mov    0x8(%ebp),%eax
c0001e34:	8d 50 01             	lea    0x1(%eax),%edx
c0001e37:	89 55 08             	mov    %edx,0x8(%ebp)
c0001e3a:	8b 55 0c             	mov    0xc(%ebp),%edx
c0001e3d:	8d 4a 01             	lea    0x1(%edx),%ecx
c0001e40:	89 4d 0c             	mov    %ecx,0xc(%ebp)
c0001e43:	0f b6 12             	movzbl (%edx),%edx
c0001e46:	88 10                	mov    %dl,(%eax)
c0001e48:	0f b6 00             	movzbl (%eax),%eax
c0001e4b:	84 c0                	test   %al,%al
c0001e4d:	0f 95 c0             	setne  %al
c0001e50:	84 c0                	test   %al,%al
c0001e52:	74 02                	je     c0001e56 <_Z6strcpyPcPKc+0x31>
c0001e54:	eb db                	jmp    c0001e31 <_Z6strcpyPcPKc+0xc>
c0001e56:	8b 45 fc             	mov    -0x4(%ebp),%eax
c0001e59:	c9                   	leave  
c0001e5a:	c3                   	ret    

c0001e5b <_Z6strlenPKc>:
c0001e5b:	55                   	push   %ebp
c0001e5c:	89 e5                	mov    %esp,%ebp
c0001e5e:	83 ec 10             	sub    $0x10,%esp
c0001e61:	c7 45 fc 00 00 00 00 	movl   $0x0,-0x4(%ebp)
c0001e68:	8b 55 fc             	mov    -0x4(%ebp),%edx
c0001e6b:	8b 45 08             	mov    0x8(%ebp),%eax
c0001e6e:	01 d0                	add    %edx,%eax
c0001e70:	0f b6 00             	movzbl (%eax),%eax
c0001e73:	84 c0                	test   %al,%al
c0001e75:	74 06                	je     c0001e7d <_Z6strlenPKc+0x22>
c0001e77:	83 45 fc 01          	addl   $0x1,-0x4(%ebp)
c0001e7b:	eb eb                	jmp    c0001e68 <_Z6strlenPKc+0xd>
c0001e7d:	8b 45 fc             	mov    -0x4(%ebp),%eax
c0001e80:	c9                   	leave  
c0001e81:	c3                   	ret    

c0001e82 <_Z4itoaiPci>:
c0001e82:	55                   	push   %ebp
c0001e83:	89 e5                	mov    %esp,%ebp
c0001e85:	83 ec 20             	sub    $0x20,%esp
c0001e88:	8b 45 0c             	mov    0xc(%ebp),%eax
c0001e8b:	89 45 fc             	mov    %eax,-0x4(%ebp)
c0001e8e:	83 7d 10 10          	cmpl   $0x10,0x10(%ebp)
c0001e92:	75 13                	jne    c0001ea7 <_Z4itoaiPci+0x25>
c0001e94:	8b 45 fc             	mov    -0x4(%ebp),%eax
c0001e97:	c6 00 30             	movb   $0x30,(%eax)
c0001e9a:	8b 45 fc             	mov    -0x4(%ebp),%eax
c0001e9d:	83 c0 01             	add    $0x1,%eax
c0001ea0:	c6 00 78             	movb   $0x78,(%eax)
c0001ea3:	83 45 fc 02          	addl   $0x2,-0x4(%ebp)
c0001ea7:	83 7d 10 08          	cmpl   $0x8,0x10(%ebp)
c0001eab:	75 0a                	jne    c0001eb7 <_Z4itoaiPci+0x35>
c0001ead:	8b 45 fc             	mov    -0x4(%ebp),%eax
c0001eb0:	c6 00 30             	movb   $0x30,(%eax)
c0001eb3:	83 45 fc 01          	addl   $0x1,-0x4(%ebp)
c0001eb7:	83 7d 08 00          	cmpl   $0x0,0x8(%ebp)
c0001ebb:	79 0f                	jns    c0001ecc <_Z4itoaiPci+0x4a>
c0001ebd:	8b 45 fc             	mov    -0x4(%ebp),%eax
c0001ec0:	8d 50 01             	lea    0x1(%eax),%edx
c0001ec3:	89 55 fc             	mov    %edx,-0x4(%ebp)
c0001ec6:	c6 00 2d             	movb   $0x2d,(%eax)
c0001ec9:	f7 5d 08             	negl   0x8(%ebp)
c0001ecc:	8b 45 08             	mov    0x8(%ebp),%eax
c0001ecf:	89 45 f4             	mov    %eax,-0xc(%ebp)
c0001ed2:	8b 45 fc             	mov    -0x4(%ebp),%eax
c0001ed5:	89 45 f8             	mov    %eax,-0x8(%ebp)
c0001ed8:	8b 4d 10             	mov    0x10(%ebp),%ecx
c0001edb:	8b 45 f4             	mov    -0xc(%ebp),%eax
c0001ede:	ba 00 00 00 00       	mov    $0x0,%edx
c0001ee3:	f7 f1                	div    %ecx
c0001ee5:	89 55 f0             	mov    %edx,-0x10(%ebp)
c0001ee8:	8b 4d 10             	mov    0x10(%ebp),%ecx
c0001eeb:	8b 45 f4             	mov    -0xc(%ebp),%eax
c0001eee:	ba 00 00 00 00       	mov    $0x0,%edx
c0001ef3:	f7 f1                	div    %ecx
c0001ef5:	89 45 f4             	mov    %eax,-0xc(%ebp)
c0001ef8:	83 7d f0 09          	cmpl   $0x9,-0x10(%ebp)
c0001efc:	76 69                	jbe    c0001f67 <_Z4itoaiPci+0xe5>
c0001efe:	8b 45 f0             	mov    -0x10(%ebp),%eax
c0001f01:	83 e8 0a             	sub    $0xa,%eax
c0001f04:	83 f8 05             	cmp    $0x5,%eax
c0001f07:	77 6f                	ja     c0001f78 <_Z4itoaiPci+0xf6>
c0001f09:	8b 04 85 ac 53 00 c0 	mov    -0x3fffac54(,%eax,4),%eax
c0001f10:	ff e0                	jmp    *%eax
c0001f12:	8b 45 fc             	mov    -0x4(%ebp),%eax
c0001f15:	8d 50 01             	lea    0x1(%eax),%edx
c0001f18:	89 55 fc             	mov    %edx,-0x4(%ebp)
c0001f1b:	c6 00 41             	movb   $0x41,(%eax)
c0001f1e:	eb 58                	jmp    c0001f78 <_Z4itoaiPci+0xf6>
c0001f20:	8b 45 fc             	mov    -0x4(%ebp),%eax
c0001f23:	8d 50 01             	lea    0x1(%eax),%edx
c0001f26:	89 55 fc             	mov    %edx,-0x4(%ebp)
c0001f29:	c6 00 42             	movb   $0x42,(%eax)
c0001f2c:	eb 4a                	jmp    c0001f78 <_Z4itoaiPci+0xf6>
c0001f2e:	8b 45 fc             	mov    -0x4(%ebp),%eax
c0001f31:	8d 50 01             	lea    0x1(%eax),%edx
c0001f34:	89 55 fc             	mov    %edx,-0x4(%ebp)
c0001f37:	c6 00 43             	movb   $0x43,(%eax)
c0001f3a:	eb 3c                	jmp    c0001f78 <_Z4itoaiPci+0xf6>
c0001f3c:	8b 45 fc             	mov    -0x4(%ebp),%eax
c0001f3f:	8d 50 01             	lea    0x1(%eax),%edx
c0001f42:	89 55 fc             	mov    %edx,-0x4(%ebp)
c0001f45:	c6 00 44             	movb   $0x44,(%eax)
c0001f48:	eb 2e                	jmp    c0001f78 <_Z4itoaiPci+0xf6>
c0001f4a:	8b 45 fc             	mov    -0x4(%ebp),%eax
c0001f4d:	8d 50 01             	lea    0x1(%eax),%edx
c0001f50:	89 55 fc             	mov    %edx,-0x4(%ebp)
c0001f53:	c6 00 45             	movb   $0x45,(%eax)
c0001f56:	eb 20                	jmp    c0001f78 <_Z4itoaiPci+0xf6>
c0001f58:	8b 45 fc             	mov    -0x4(%ebp),%eax
c0001f5b:	8d 50 01             	lea    0x1(%eax),%edx
c0001f5e:	89 55 fc             	mov    %edx,-0x4(%ebp)
c0001f61:	c6 00 46             	movb   $0x46,(%eax)
c0001f64:	90                   	nop
c0001f65:	eb 11                	jmp    c0001f78 <_Z4itoaiPci+0xf6>
c0001f67:	8b 45 fc             	mov    -0x4(%ebp),%eax
c0001f6a:	8d 50 01             	lea    0x1(%eax),%edx
c0001f6d:	89 55 fc             	mov    %edx,-0x4(%ebp)
c0001f70:	8b 55 f0             	mov    -0x10(%ebp),%edx
c0001f73:	83 c2 30             	add    $0x30,%edx
c0001f76:	88 10                	mov    %dl,(%eax)
c0001f78:	83 7d f4 00          	cmpl   $0x0,-0xc(%ebp)
c0001f7c:	74 05                	je     c0001f83 <_Z4itoaiPci+0x101>
c0001f7e:	e9 55 ff ff ff       	jmp    c0001ed8 <_Z4itoaiPci+0x56>
c0001f83:	8b 55 fc             	mov    -0x4(%ebp),%edx
c0001f86:	8b 45 0c             	mov    0xc(%ebp),%eax
c0001f89:	29 c2                	sub    %eax,%edx
c0001f8b:	89 d0                	mov    %edx,%eax
c0001f8d:	89 45 ec             	mov    %eax,-0x14(%ebp)
c0001f90:	8b 45 fc             	mov    -0x4(%ebp),%eax
c0001f93:	8d 50 ff             	lea    -0x1(%eax),%edx
c0001f96:	89 55 fc             	mov    %edx,-0x4(%ebp)
c0001f99:	c6 00 00             	movb   $0x0,(%eax)
c0001f9c:	8b 45 fc             	mov    -0x4(%ebp),%eax
c0001f9f:	0f b6 00             	movzbl (%eax),%eax
c0001fa2:	88 45 eb             	mov    %al,-0x15(%ebp)
c0001fa5:	8b 45 f8             	mov    -0x8(%ebp),%eax
c0001fa8:	0f b6 10             	movzbl (%eax),%edx
c0001fab:	8b 45 fc             	mov    -0x4(%ebp),%eax
c0001fae:	88 10                	mov    %dl,(%eax)
c0001fb0:	8b 45 f8             	mov    -0x8(%ebp),%eax
c0001fb3:	0f b6 55 eb          	movzbl -0x15(%ebp),%edx
c0001fb7:	88 10                	mov    %dl,(%eax)
c0001fb9:	83 6d fc 01          	subl   $0x1,-0x4(%ebp)
c0001fbd:	83 45 f8 01          	addl   $0x1,-0x8(%ebp)
c0001fc1:	8b 45 f8             	mov    -0x8(%ebp),%eax
c0001fc4:	3b 45 fc             	cmp    -0x4(%ebp),%eax
c0001fc7:	73 02                	jae    c0001fcb <_Z4itoaiPci+0x149>
c0001fc9:	eb d1                	jmp    c0001f9c <_Z4itoaiPci+0x11a>
c0001fcb:	8b 45 ec             	mov    -0x14(%ebp),%eax
c0001fce:	c9                   	leave  
c0001fcf:	c3                   	ret    

c0001fd0 <_Z4itoajPci>:
c0001fd0:	55                   	push   %ebp
c0001fd1:	89 e5                	mov    %esp,%ebp
c0001fd3:	83 ec 20             	sub    $0x20,%esp
c0001fd6:	8b 45 0c             	mov    0xc(%ebp),%eax
c0001fd9:	89 45 fc             	mov    %eax,-0x4(%ebp)
c0001fdc:	83 7d 10 10          	cmpl   $0x10,0x10(%ebp)
c0001fe0:	75 13                	jne    c0001ff5 <_Z4itoajPci+0x25>
c0001fe2:	8b 45 fc             	mov    -0x4(%ebp),%eax
c0001fe5:	c6 00 30             	movb   $0x30,(%eax)
c0001fe8:	8b 45 fc             	mov    -0x4(%ebp),%eax
c0001feb:	83 c0 01             	add    $0x1,%eax
c0001fee:	c6 00 78             	movb   $0x78,(%eax)
c0001ff1:	83 45 fc 02          	addl   $0x2,-0x4(%ebp)
c0001ff5:	83 7d 10 08          	cmpl   $0x8,0x10(%ebp)
c0001ff9:	75 0a                	jne    c0002005 <_Z4itoajPci+0x35>
c0001ffb:	8b 45 fc             	mov    -0x4(%ebp),%eax
c0001ffe:	c6 00 30             	movb   $0x30,(%eax)
c0002001:	83 45 fc 01          	addl   $0x1,-0x4(%ebp)
c0002005:	8b 45 08             	mov    0x8(%ebp),%eax
c0002008:	89 45 f4             	mov    %eax,-0xc(%ebp)
c000200b:	8b 45 fc             	mov    -0x4(%ebp),%eax
c000200e:	89 45 f8             	mov    %eax,-0x8(%ebp)
c0002011:	8b 4d 10             	mov    0x10(%ebp),%ecx
c0002014:	8b 45 f4             	mov    -0xc(%ebp),%eax
c0002017:	ba 00 00 00 00       	mov    $0x0,%edx
c000201c:	f7 f1                	div    %ecx
c000201e:	89 55 f0             	mov    %edx,-0x10(%ebp)
c0002021:	8b 4d 10             	mov    0x10(%ebp),%ecx
c0002024:	8b 45 f4             	mov    -0xc(%ebp),%eax
c0002027:	ba 00 00 00 00       	mov    $0x0,%edx
c000202c:	f7 f1                	div    %ecx
c000202e:	89 45 f4             	mov    %eax,-0xc(%ebp)
c0002031:	83 7d f0 09          	cmpl   $0x9,-0x10(%ebp)
c0002035:	76 69                	jbe    c00020a0 <_Z4itoajPci+0xd0>
c0002037:	8b 45 f0             	mov    -0x10(%ebp),%eax
c000203a:	83 e8 0a             	sub    $0xa,%eax
c000203d:	83 f8 05             	cmp    $0x5,%eax
c0002040:	77 6f                	ja     c00020b1 <_Z4itoajPci+0xe1>
c0002042:	8b 04 85 c4 53 00 c0 	mov    -0x3fffac3c(,%eax,4),%eax
c0002049:	ff e0                	jmp    *%eax
c000204b:	8b 45 fc             	mov    -0x4(%ebp),%eax
c000204e:	8d 50 01             	lea    0x1(%eax),%edx
c0002051:	89 55 fc             	mov    %edx,-0x4(%ebp)
c0002054:	c6 00 41             	movb   $0x41,(%eax)
c0002057:	eb 58                	jmp    c00020b1 <_Z4itoajPci+0xe1>
c0002059:	8b 45 fc             	mov    -0x4(%ebp),%eax
c000205c:	8d 50 01             	lea    0x1(%eax),%edx
c000205f:	89 55 fc             	mov    %edx,-0x4(%ebp)
c0002062:	c6 00 42             	movb   $0x42,(%eax)
c0002065:	eb 4a                	jmp    c00020b1 <_Z4itoajPci+0xe1>
c0002067:	8b 45 fc             	mov    -0x4(%ebp),%eax
c000206a:	8d 50 01             	lea    0x1(%eax),%edx
c000206d:	89 55 fc             	mov    %edx,-0x4(%ebp)
c0002070:	c6 00 43             	movb   $0x43,(%eax)
c0002073:	eb 3c                	jmp    c00020b1 <_Z4itoajPci+0xe1>
c0002075:	8b 45 fc             	mov    -0x4(%ebp),%eax
c0002078:	8d 50 01             	lea    0x1(%eax),%edx
c000207b:	89 55 fc             	mov    %edx,-0x4(%ebp)
c000207e:	c6 00 44             	movb   $0x44,(%eax)
c0002081:	eb 2e                	jmp    c00020b1 <_Z4itoajPci+0xe1>
c0002083:	8b 45 fc             	mov    -0x4(%ebp),%eax
c0002086:	8d 50 01             	lea    0x1(%eax),%edx
c0002089:	89 55 fc             	mov    %edx,-0x4(%ebp)
c000208c:	c6 00 45             	movb   $0x45,(%eax)
c000208f:	eb 20                	jmp    c00020b1 <_Z4itoajPci+0xe1>
c0002091:	8b 45 fc             	mov    -0x4(%ebp),%eax
c0002094:	8d 50 01             	lea    0x1(%eax),%edx
c0002097:	89 55 fc             	mov    %edx,-0x4(%ebp)
c000209a:	c6 00 46             	movb   $0x46,(%eax)
c000209d:	90                   	nop
c000209e:	eb 11                	jmp    c00020b1 <_Z4itoajPci+0xe1>
c00020a0:	8b 45 fc             	mov    -0x4(%ebp),%eax
c00020a3:	8d 50 01             	lea    0x1(%eax),%edx
c00020a6:	89 55 fc             	mov    %edx,-0x4(%ebp)
c00020a9:	8b 55 f0             	mov    -0x10(%ebp),%edx
c00020ac:	83 c2 30             	add    $0x30,%edx
c00020af:	88 10                	mov    %dl,(%eax)
c00020b1:	83 7d f4 00          	cmpl   $0x0,-0xc(%ebp)
c00020b5:	74 05                	je     c00020bc <_Z4itoajPci+0xec>
c00020b7:	e9 55 ff ff ff       	jmp    c0002011 <_Z4itoajPci+0x41>
c00020bc:	8b 55 fc             	mov    -0x4(%ebp),%edx
c00020bf:	8b 45 0c             	mov    0xc(%ebp),%eax
c00020c2:	29 c2                	sub    %eax,%edx
c00020c4:	89 d0                	mov    %edx,%eax
c00020c6:	89 45 ec             	mov    %eax,-0x14(%ebp)
c00020c9:	8b 45 fc             	mov    -0x4(%ebp),%eax
c00020cc:	8d 50 ff             	lea    -0x1(%eax),%edx
c00020cf:	89 55 fc             	mov    %edx,-0x4(%ebp)
c00020d2:	c6 00 00             	movb   $0x0,(%eax)
c00020d5:	8b 45 fc             	mov    -0x4(%ebp),%eax
c00020d8:	0f b6 00             	movzbl (%eax),%eax
c00020db:	88 45 eb             	mov    %al,-0x15(%ebp)
c00020de:	8b 45 f8             	mov    -0x8(%ebp),%eax
c00020e1:	0f b6 10             	movzbl (%eax),%edx
c00020e4:	8b 45 fc             	mov    -0x4(%ebp),%eax
c00020e7:	88 10                	mov    %dl,(%eax)
c00020e9:	8b 45 f8             	mov    -0x8(%ebp),%eax
c00020ec:	0f b6 55 eb          	movzbl -0x15(%ebp),%edx
c00020f0:	88 10                	mov    %dl,(%eax)
c00020f2:	83 6d fc 01          	subl   $0x1,-0x4(%ebp)
c00020f6:	83 45 f8 01          	addl   $0x1,-0x8(%ebp)
c00020fa:	8b 45 f8             	mov    -0x8(%ebp),%eax
c00020fd:	3b 45 fc             	cmp    -0x4(%ebp),%eax
c0002100:	73 02                	jae    c0002104 <_Z4itoajPci+0x134>
c0002102:	eb d1                	jmp    c00020d5 <_Z4itoajPci+0x105>
c0002104:	8b 45 ec             	mov    -0x14(%ebp),%eax
c0002107:	c9                   	leave  
c0002108:	c3                   	ret    

c0002109 <_Z8init_allv>:
c0002109:	55                   	push   %ebp
c000210a:	89 e5                	mov    %esp,%ebp
c000210c:	83 ec 08             	sub    $0x8,%esp
c000210f:	83 ec 0c             	sub    $0xc,%esp
c0002112:	68 dc 53 00 c0       	push   $0xc00053dc
c0002117:	e8 c5 f6 ff ff       	call   c00017e1 <_Z8k_printfPKcz>
c000211c:	83 c4 10             	add    $0x10,%esp
c000211f:	e8 1d 04 00 00       	call   c0002541 <_Z8idt_initv>
c0002124:	e8 73 21 00 00       	call   c000429c <_Z8mem_initv>
c0002129:	e8 87 12 00 00       	call   c00033b5 <_Z11thread_initv>
c000212e:	e8 d1 0a 00 00       	call   c0002c04 <_Z10timer_initv>
c0002133:	e8 6d 22 00 00       	call   c00043a5 <_Z12console_initv>
c0002138:	e8 8a 27 00 00       	call   c00048c7 <_Z13keyboard_initv>
c000213d:	e8 68 2b 00 00       	call   c0004caa <_Z8tss_initv>
c0002142:	e8 15 2d 00 00       	call   c0004e5c <_Z12syscall_initv>
c0002147:	90                   	nop
c0002148:	c9                   	leave  
c0002149:	c3                   	ret    

c000214a <_ZL4outbth>:
c000214a:	55                   	push   %ebp
c000214b:	89 e5                	mov    %esp,%ebp
c000214d:	83 ec 08             	sub    $0x8,%esp
c0002150:	8b 55 08             	mov    0x8(%ebp),%edx
c0002153:	8b 45 0c             	mov    0xc(%ebp),%eax
c0002156:	66 89 55 fc          	mov    %dx,-0x4(%ebp)
c000215a:	88 45 f8             	mov    %al,-0x8(%ebp)
c000215d:	0f b6 45 f8          	movzbl -0x8(%ebp),%eax
c0002161:	0f b7 55 fc          	movzwl -0x4(%ebp),%edx
c0002165:	ee                   	out    %al,(%dx)
c0002166:	90                   	nop
c0002167:	c9                   	leave  
c0002168:	c3                   	ret    

c0002169 <_ZL8pic_initv>:
c0002169:	55                   	push   %ebp
c000216a:	89 e5                	mov    %esp,%ebp
c000216c:	83 ec 08             	sub    $0x8,%esp
c000216f:	6a 11                	push   $0x11
c0002171:	6a 20                	push   $0x20
c0002173:	e8 d2 ff ff ff       	call   c000214a <_ZL4outbth>
c0002178:	83 c4 08             	add    $0x8,%esp
c000217b:	6a 20                	push   $0x20
c000217d:	6a 21                	push   $0x21
c000217f:	e8 c6 ff ff ff       	call   c000214a <_ZL4outbth>
c0002184:	83 c4 08             	add    $0x8,%esp
c0002187:	6a 04                	push   $0x4
c0002189:	6a 21                	push   $0x21
c000218b:	e8 ba ff ff ff       	call   c000214a <_ZL4outbth>
c0002190:	83 c4 08             	add    $0x8,%esp
c0002193:	6a 01                	push   $0x1
c0002195:	6a 21                	push   $0x21
c0002197:	e8 ae ff ff ff       	call   c000214a <_ZL4outbth>
c000219c:	83 c4 08             	add    $0x8,%esp
c000219f:	6a 11                	push   $0x11
c00021a1:	68 a0 00 00 00       	push   $0xa0
c00021a6:	e8 9f ff ff ff       	call   c000214a <_ZL4outbth>
c00021ab:	83 c4 08             	add    $0x8,%esp
c00021ae:	6a 28                	push   $0x28
c00021b0:	68 a1 00 00 00       	push   $0xa1
c00021b5:	e8 90 ff ff ff       	call   c000214a <_ZL4outbth>
c00021ba:	83 c4 08             	add    $0x8,%esp
c00021bd:	6a 02                	push   $0x2
c00021bf:	68 a1 00 00 00       	push   $0xa1
c00021c4:	e8 81 ff ff ff       	call   c000214a <_ZL4outbth>
c00021c9:	83 c4 08             	add    $0x8,%esp
c00021cc:	6a 01                	push   $0x1
c00021ce:	68 a1 00 00 00       	push   $0xa1
c00021d3:	e8 72 ff ff ff       	call   c000214a <_ZL4outbth>
c00021d8:	83 c4 08             	add    $0x8,%esp
c00021db:	68 fe 00 00 00       	push   $0xfe
c00021e0:	6a 21                	push   $0x21
c00021e2:	e8 63 ff ff ff       	call   c000214a <_ZL4outbth>
c00021e7:	83 c4 08             	add    $0x8,%esp
c00021ea:	68 ff 00 00 00       	push   $0xff
c00021ef:	68 a1 00 00 00       	push   $0xa1
c00021f4:	e8 51 ff ff ff       	call   c000214a <_ZL4outbth>
c00021f9:	83 c4 08             	add    $0x8,%esp
c00021fc:	83 ec 0c             	sub    $0xc,%esp
c00021ff:	68 ec 53 00 c0       	push   $0xc00053ec
c0002204:	e8 d8 f5 ff ff       	call   c00017e1 <_Z8k_printfPKcz>
c0002209:	83 c4 10             	add    $0x10,%esp
c000220c:	90                   	nop
c000220d:	c9                   	leave  
c000220e:	c3                   	ret    

c000220f <_ZL13make_idt_descR9gate_deschPv>:
c000220f:	55                   	push   %ebp
c0002210:	89 e5                	mov    %esp,%ebp
c0002212:	83 ec 04             	sub    $0x4,%esp
c0002215:	8b 45 0c             	mov    0xc(%ebp),%eax
c0002218:	88 45 fc             	mov    %al,-0x4(%ebp)
c000221b:	8b 45 10             	mov    0x10(%ebp),%eax
c000221e:	89 c2                	mov    %eax,%edx
c0002220:	8b 45 08             	mov    0x8(%ebp),%eax
c0002223:	66 89 10             	mov    %dx,(%eax)
c0002226:	8b 45 08             	mov    0x8(%ebp),%eax
c0002229:	66 c7 40 02 08 00    	movw   $0x8,0x2(%eax)
c000222f:	8b 45 08             	mov    0x8(%ebp),%eax
c0002232:	c6 40 04 00          	movb   $0x0,0x4(%eax)
c0002236:	8b 45 08             	mov    0x8(%ebp),%eax
c0002239:	0f b6 55 fc          	movzbl -0x4(%ebp),%edx
c000223d:	88 50 05             	mov    %dl,0x5(%eax)
c0002240:	8b 45 10             	mov    0x10(%ebp),%eax
c0002243:	c1 e8 10             	shr    $0x10,%eax
c0002246:	89 c2                	mov    %eax,%edx
c0002248:	8b 45 08             	mov    0x8(%ebp),%eax
c000224b:	66 89 50 06          	mov    %dx,0x6(%eax)
c000224f:	90                   	nop
c0002250:	c9                   	leave  
c0002251:	c3                   	ret    

c0002252 <_ZL13idt_desc_initv>:
c0002252:	55                   	push   %ebp
c0002253:	89 e5                	mov    %esp,%ebp
c0002255:	83 ec 18             	sub    $0x18,%esp
c0002258:	c7 45 f0 80 00 00 00 	movl   $0x80,-0x10(%ebp)
c000225f:	c7 45 f4 00 00 00 00 	movl   $0x0,-0xc(%ebp)
c0002266:	81 7d f4 80 00 00 00 	cmpl   $0x80,-0xc(%ebp)
c000226d:	7f 2b                	jg     c000229a <_ZL13idt_desc_initv+0x48>
c000226f:	8b 45 f4             	mov    -0xc(%ebp),%eax
c0002272:	8b 04 85 20 70 00 c0 	mov    -0x3fff8fe0(,%eax,4),%eax
c0002279:	8b 55 f4             	mov    -0xc(%ebp),%edx
c000227c:	c1 e2 03             	shl    $0x3,%edx
c000227f:	81 c2 c0 75 00 c0    	add    $0xc00075c0,%edx
c0002285:	50                   	push   %eax
c0002286:	68 8e 00 00 00       	push   $0x8e
c000228b:	52                   	push   %edx
c000228c:	e8 7e ff ff ff       	call   c000220f <_ZL13make_idt_descR9gate_deschPv>
c0002291:	83 c4 0c             	add    $0xc,%esp
c0002294:	83 45 f4 01          	addl   $0x1,-0xc(%ebp)
c0002298:	eb cc                	jmp    c0002266 <_ZL13idt_desc_initv+0x14>
c000229a:	8b 45 f0             	mov    -0x10(%ebp),%eax
c000229d:	c1 e0 03             	shl    $0x3,%eax
c00022a0:	05 c0 75 00 c0       	add    $0xc00075c0,%eax
c00022a5:	68 f7 2a 00 c0       	push   $0xc0002af7
c00022aa:	68 ee 00 00 00       	push   $0xee
c00022af:	50                   	push   %eax
c00022b0:	e8 5a ff ff ff       	call   c000220f <_ZL13make_idt_descR9gate_deschPv>
c00022b5:	83 c4 0c             	add    $0xc,%esp
c00022b8:	83 ec 0c             	sub    $0xc,%esp
c00022bb:	68 fe 53 00 c0       	push   $0xc00053fe
c00022c0:	e8 1c f5 ff ff       	call   c00017e1 <_Z8k_printfPKcz>
c00022c5:	83 c4 10             	add    $0x10,%esp
c00022c8:	90                   	nop
c00022c9:	c9                   	leave  
c00022ca:	c3                   	ret    

c00022cb <_ZL20general_intr_handlerh>:
c00022cb:	55                   	push   %ebp
c00022cc:	89 e5                	mov    %esp,%ebp
c00022ce:	83 ec 28             	sub    $0x28,%esp
c00022d1:	8b 45 08             	mov    0x8(%ebp),%eax
c00022d4:	88 45 e4             	mov    %al,-0x1c(%ebp)
c00022d7:	80 7d e4 27          	cmpb   $0x27,-0x1c(%ebp)
c00022db:	0f 84 97 00 00 00    	je     c0002378 <_ZL20general_intr_handlerh+0xad>
c00022e1:	80 7d e4 2f          	cmpb   $0x2f,-0x1c(%ebp)
c00022e5:	0f 84 8d 00 00 00    	je     c0002378 <_ZL20general_intr_handlerh+0xad>
c00022eb:	83 ec 0c             	sub    $0xc,%esp
c00022ee:	6a 00                	push   $0x0
c00022f0:	e8 09 f3 ff ff       	call   c00015fe <_Z10set_cursort>
c00022f5:	83 c4 10             	add    $0x10,%esp
c00022f8:	83 ec 08             	sub    $0x8,%esp
c00022fb:	6a 04                	push   $0x4
c00022fd:	6a 00                	push   $0x0
c00022ff:	e8 9b f2 ff ff       	call   c000159f <_Z10clean_linehh>
c0002304:	83 c4 10             	add    $0x10,%esp
c0002307:	83 ec 0c             	sub    $0xc,%esp
c000230a:	68 18 54 00 c0       	push   $0xc0005418
c000230f:	e8 cd f4 ff ff       	call   c00017e1 <_Z8k_printfPKcz>
c0002314:	83 c4 10             	add    $0x10,%esp
c0002317:	83 ec 0c             	sub    $0xc,%esp
c000231a:	6a 58                	push   $0x58
c000231c:	e8 dd f2 ff ff       	call   c00015fe <_Z10set_cursort>
c0002321:	83 c4 10             	add    $0x10,%esp
c0002324:	0f b6 45 e4          	movzbl -0x1c(%ebp),%eax
c0002328:	8b 04 85 80 71 00 c0 	mov    -0x3fff8e80(,%eax,4),%eax
c000232f:	83 ec 08             	sub    $0x8,%esp
c0002332:	50                   	push   %eax
c0002333:	68 47 54 00 c0       	push   $0xc0005447
c0002338:	e8 a4 f4 ff ff       	call   c00017e1 <_Z8k_printfPKcz>
c000233d:	83 c4 10             	add    $0x10,%esp
c0002340:	80 7d e4 0e          	cmpb   $0xe,-0x1c(%ebp)
c0002344:	75 20                	jne    c0002366 <_ZL20general_intr_handlerh+0x9b>
c0002346:	c7 45 f4 00 00 00 00 	movl   $0x0,-0xc(%ebp)
c000234d:	0f 20 d0             	mov    %cr2,%eax
c0002350:	89 45 f4             	mov    %eax,-0xc(%ebp)
c0002353:	83 ec 08             	sub    $0x8,%esp
c0002356:	ff 75 f4             	pushl  -0xc(%ebp)
c0002359:	68 4b 54 00 c0       	push   $0xc000544b
c000235e:	e8 7e f4 ff ff       	call   c00017e1 <_Z8k_printfPKcz>
c0002363:	83 c4 10             	add    $0x10,%esp
c0002366:	83 ec 0c             	sub    $0xc,%esp
c0002369:	68 64 54 00 c0       	push   $0xc0005464
c000236e:	e8 6e f4 ff ff       	call   c00017e1 <_Z8k_printfPKcz>
c0002373:	83 c4 10             	add    $0x10,%esp
c0002376:	eb fe                	jmp    c0002376 <_ZL20general_intr_handlerh+0xab>
c0002378:	90                   	nop
c0002379:	c9                   	leave  
c000237a:	c3                   	ret    

c000237b <_ZL14exception_initv>:
c000237b:	55                   	push   %ebp
c000237c:	89 e5                	mov    %esp,%ebp
c000237e:	83 ec 10             	sub    $0x10,%esp
c0002381:	c7 45 fc 00 00 00 00 	movl   $0x0,-0x4(%ebp)
c0002388:	81 7d fc 80 00 00 00 	cmpl   $0x80,-0x4(%ebp)
c000238f:	7f 22                	jg     c00023b3 <_ZL14exception_initv+0x38>
c0002391:	8b 45 fc             	mov    -0x4(%ebp),%eax
c0002394:	c7 04 85 a0 73 00 c0 	movl   $0xc00022cb,-0x3fff8c60(,%eax,4)
c000239b:	cb 22 00 c0 
c000239f:	8b 45 fc             	mov    -0x4(%ebp),%eax
c00023a2:	c7 04 85 80 71 00 c0 	movl   $0xc0005493,-0x3fff8e80(,%eax,4)
c00023a9:	93 54 00 c0 
c00023ad:	83 45 fc 01          	addl   $0x1,-0x4(%ebp)
c00023b1:	eb d5                	jmp    c0002388 <_ZL14exception_initv+0xd>
c00023b3:	c7 05 80 71 00 c0 9b 	movl   $0xc000549b,0xc0007180
c00023ba:	54 00 c0 
c00023bd:	c7 05 84 71 00 c0 ac 	movl   $0xc00054ac,0xc0007184
c00023c4:	54 00 c0 
c00023c7:	c7 05 88 71 00 c0 c0 	movl   $0xc00054c0,0xc0007188
c00023ce:	54 00 c0 
c00023d1:	c7 05 8c 71 00 c0 ce 	movl   $0xc00054ce,0xc000718c
c00023d8:	54 00 c0 
c00023db:	c7 05 90 71 00 c0 e7 	movl   $0xc00054e7,0xc0007190
c00023e2:	54 00 c0 
c00023e5:	c7 05 94 71 00 c0 00 	movl   $0xc0005500,0xc0007194
c00023ec:	55 00 c0 
c00023ef:	c7 05 98 71 00 c0 23 	movl   $0xc0005523,0xc0007198
c00023f6:	55 00 c0 
c00023f9:	c7 05 9c 71 00 c0 40 	movl   $0xc0005540,0xc000719c
c0002400:	55 00 c0 
c0002403:	c7 05 a0 71 00 c0 63 	movl   $0xc0005563,0xc00071a0
c000240a:	55 00 c0 
c000240d:	c7 05 a4 71 00 c0 7e 	movl   $0xc000557e,0xc00071a4
c0002414:	55 00 c0 
c0002417:	c7 05 a8 71 00 c0 9a 	movl   $0xc000559a,0xc00071a8
c000241e:	55 00 c0 
c0002421:	c7 05 ac 71 00 c0 b4 	movl   $0xc00055b4,0xc00071ac
c0002428:	55 00 c0 
c000242b:	c7 05 b0 71 00 c0 cc 	movl   $0xc00055cc,0xc00071b0
c0002432:	55 00 c0 
c0002435:	c7 05 b4 71 00 c0 e8 	movl   $0xc00055e8,0xc00071b4
c000243c:	55 00 c0 
c000243f:	c7 05 b8 71 00 c0 09 	movl   $0xc0005609,0xc00071b8
c0002446:	56 00 c0 
c0002449:	c7 05 c0 71 00 c0 24 	movl   $0xc0005624,0xc00071c0
c0002450:	56 00 c0 
c0002453:	c7 05 c4 71 00 c0 45 	movl   $0xc0005645,0xc00071c4
c000245a:	56 00 c0 
c000245d:	c7 05 c8 71 00 c0 63 	movl   $0xc0005663,0xc00071c8
c0002464:	56 00 c0 
c0002467:	c7 05 cc 71 00 c0 80 	movl   $0xc0005680,0xc00071cc
c000246e:	56 00 c0 
c0002471:	c7 05 00 72 00 c0 a2 	movl   $0xc00056a2,0xc0007200
c0002478:	56 00 c0 
c000247b:	90                   	nop
c000247c:	c9                   	leave  
c000247d:	c3                   	ret    

c000247e <_Z11intr_enablev>:
c000247e:	55                   	push   %ebp
c000247f:	89 e5                	mov    %esp,%ebp
c0002481:	83 ec 18             	sub    $0x18,%esp
c0002484:	e8 6f 00 00 00       	call   c00024f8 <_Z15intr_get_statusv>
c0002489:	83 f8 01             	cmp    $0x1,%eax
c000248c:	0f 94 c0             	sete   %al
c000248f:	84 c0                	test   %al,%al
c0002491:	74 0c                	je     c000249f <_Z11intr_enablev+0x21>
c0002493:	c7 45 f4 01 00 00 00 	movl   $0x1,-0xc(%ebp)
c000249a:	8b 45 f4             	mov    -0xc(%ebp),%eax
c000249d:	eb 0b                	jmp    c00024aa <_Z11intr_enablev+0x2c>
c000249f:	c7 45 f4 00 00 00 00 	movl   $0x0,-0xc(%ebp)
c00024a6:	fb                   	sti    
c00024a7:	8b 45 f4             	mov    -0xc(%ebp),%eax
c00024aa:	c9                   	leave  
c00024ab:	c3                   	ret    

c00024ac <_Z12intr_disablev>:
c00024ac:	55                   	push   %ebp
c00024ad:	89 e5                	mov    %esp,%ebp
c00024af:	83 ec 18             	sub    $0x18,%esp
c00024b2:	e8 41 00 00 00       	call   c00024f8 <_Z15intr_get_statusv>
c00024b7:	83 f8 01             	cmp    $0x1,%eax
c00024ba:	0f 94 c0             	sete   %al
c00024bd:	84 c0                	test   %al,%al
c00024bf:	74 0d                	je     c00024ce <_Z12intr_disablev+0x22>
c00024c1:	c7 45 f4 01 00 00 00 	movl   $0x1,-0xc(%ebp)
c00024c8:	fa                   	cli    
c00024c9:	8b 45 f4             	mov    -0xc(%ebp),%eax
c00024cc:	eb 0a                	jmp    c00024d8 <_Z12intr_disablev+0x2c>
c00024ce:	c7 45 f4 00 00 00 00 	movl   $0x0,-0xc(%ebp)
c00024d5:	8b 45 f4             	mov    -0xc(%ebp),%eax
c00024d8:	c9                   	leave  
c00024d9:	c3                   	ret    

c00024da <_Z15intr_set_status11intr_status>:
c00024da:	55                   	push   %ebp
c00024db:	89 e5                	mov    %esp,%ebp
c00024dd:	83 ec 08             	sub    $0x8,%esp
c00024e0:	8b 45 08             	mov    0x8(%ebp),%eax
c00024e3:	83 e0 01             	and    $0x1,%eax
c00024e6:	85 c0                	test   %eax,%eax
c00024e8:	74 07                	je     c00024f1 <_Z15intr_set_status11intr_status+0x17>
c00024ea:	e8 8f ff ff ff       	call   c000247e <_Z11intr_enablev>
c00024ef:	eb 05                	jmp    c00024f6 <_Z15intr_set_status11intr_status+0x1c>
c00024f1:	e8 b6 ff ff ff       	call   c00024ac <_Z12intr_disablev>
c00024f6:	c9                   	leave  
c00024f7:	c3                   	ret    

c00024f8 <_Z15intr_get_statusv>:
c00024f8:	55                   	push   %ebp
c00024f9:	89 e5                	mov    %esp,%ebp
c00024fb:	83 ec 10             	sub    $0x10,%esp
c00024fe:	c7 45 fc 00 00 00 00 	movl   $0x0,-0x4(%ebp)
c0002505:	9c                   	pushf  
c0002506:	58                   	pop    %eax
c0002507:	89 45 fc             	mov    %eax,-0x4(%ebp)
c000250a:	8b 45 fc             	mov    -0x4(%ebp),%eax
c000250d:	25 00 02 00 00       	and    $0x200,%eax
c0002512:	85 c0                	test   %eax,%eax
c0002514:	74 07                	je     c000251d <_Z15intr_get_statusv+0x25>
c0002516:	b8 01 00 00 00       	mov    $0x1,%eax
c000251b:	eb 05                	jmp    c0002522 <_Z15intr_get_statusv+0x2a>
c000251d:	b8 00 00 00 00       	mov    $0x0,%eax
c0002522:	c9                   	leave  
c0002523:	c3                   	ret    

c0002524 <_Z16register_handlerhPv>:
c0002524:	55                   	push   %ebp
c0002525:	89 e5                	mov    %esp,%ebp
c0002527:	83 ec 04             	sub    $0x4,%esp
c000252a:	8b 45 08             	mov    0x8(%ebp),%eax
c000252d:	88 45 fc             	mov    %al,-0x4(%ebp)
c0002530:	0f b6 45 fc          	movzbl -0x4(%ebp),%eax
c0002534:	8b 55 0c             	mov    0xc(%ebp),%edx
c0002537:	89 14 85 a0 73 00 c0 	mov    %edx,-0x3fff8c60(,%eax,4)
c000253e:	90                   	nop
c000253f:	c9                   	leave  
c0002540:	c3                   	ret    

c0002541 <_Z8idt_initv>:
c0002541:	55                   	push   %ebp
c0002542:	89 e5                	mov    %esp,%ebp
c0002544:	56                   	push   %esi
c0002545:	53                   	push   %ebx
c0002546:	83 ec 20             	sub    $0x20,%esp
c0002549:	83 ec 0c             	sub    $0xc,%esp
c000254c:	68 b6 56 00 c0       	push   $0xc00056b6
c0002551:	e8 8b f2 ff ff       	call   c00017e1 <_Z8k_printfPKcz>
c0002556:	83 c4 10             	add    $0x10,%esp
c0002559:	e8 f4 fc ff ff       	call   c0002252 <_ZL13idt_desc_initv>
c000255e:	e8 18 fe ff ff       	call   c000237b <_ZL14exception_initv>
c0002563:	e8 01 fc ff ff       	call   c0002169 <_ZL8pic_initv>
c0002568:	b8 07 04 00 00       	mov    $0x407,%eax
c000256d:	89 45 e0             	mov    %eax,-0x20(%ebp)
c0002570:	c7 45 e4 00 00 00 00 	movl   $0x0,-0x1c(%ebp)
c0002577:	b8 c0 75 00 c0       	mov    $0xc00075c0,%eax
c000257c:	ba 00 00 00 00       	mov    $0x0,%edx
c0002581:	0f a4 c2 10          	shld   $0x10,%eax,%edx
c0002585:	c1 e0 10             	shl    $0x10,%eax
c0002588:	8b 4d e0             	mov    -0x20(%ebp),%ecx
c000258b:	09 c1                	or     %eax,%ecx
c000258d:	89 cb                	mov    %ecx,%ebx
c000258f:	8b 4d e4             	mov    -0x1c(%ebp),%ecx
c0002592:	09 d1                	or     %edx,%ecx
c0002594:	89 ce                	mov    %ecx,%esi
c0002596:	89 5d f0             	mov    %ebx,-0x10(%ebp)
c0002599:	89 75 f4             	mov    %esi,-0xc(%ebp)
c000259c:	0f 01 5d f0          	lidtl  -0x10(%ebp)
c00025a0:	83 ec 0c             	sub    $0xc,%esp
c00025a3:	68 c6 56 00 c0       	push   $0xc00056c6
c00025a8:	e8 34 f2 ff ff       	call   c00017e1 <_Z8k_printfPKcz>
c00025ad:	83 c4 10             	add    $0x10,%esp
c00025b0:	90                   	nop
c00025b1:	8d 65 f8             	lea    -0x8(%ebp),%esp
c00025b4:	5b                   	pop    %ebx
c00025b5:	5e                   	pop    %esi
c00025b6:	5d                   	pop    %ebp
c00025b7:	c3                   	ret    
c00025b8:	66 90                	xchg   %ax,%ax
c00025ba:	66 90                	xchg   %ax,%ax
c00025bc:	66 90                	xchg   %ax,%ax
c00025be:	66 90                	xchg   %ax,%ax

c00025c0 <intr_exit>:
c00025c0:	83 c4 04             	add    $0x4,%esp
c00025c3:	61                   	popa   
c00025c4:	0f a9                	pop    %gs
c00025c6:	0f a1                	pop    %fs
c00025c8:	07                   	pop    %es
c00025c9:	1f                   	pop    %ds
c00025ca:	83 c4 04             	add    $0x4,%esp
c00025cd:	cf                   	iret   

c00025ce <intr0x00entry>:
c00025ce:	6a 00                	push   $0x0
c00025d0:	1e                   	push   %ds
c00025d1:	06                   	push   %es
c00025d2:	0f a0                	push   %fs
c00025d4:	0f a8                	push   %gs
c00025d6:	60                   	pusha  
c00025d7:	b0 20                	mov    $0x20,%al
c00025d9:	e6 a0                	out    %al,$0xa0
c00025db:	e6 20                	out    %al,$0x20
c00025dd:	6a 00                	push   $0x0
c00025df:	ff 15 a0 73 00 c0    	call   *0xc00073a0
c00025e5:	eb d9                	jmp    c00025c0 <intr_exit>

c00025e7 <intr0x01entry>:
c00025e7:	6a 00                	push   $0x0
c00025e9:	1e                   	push   %ds
c00025ea:	06                   	push   %es
c00025eb:	0f a0                	push   %fs
c00025ed:	0f a8                	push   %gs
c00025ef:	60                   	pusha  
c00025f0:	b0 20                	mov    $0x20,%al
c00025f2:	e6 a0                	out    %al,$0xa0
c00025f4:	e6 20                	out    %al,$0x20
c00025f6:	6a 01                	push   $0x1
c00025f8:	ff 15 a4 73 00 c0    	call   *0xc00073a4
c00025fe:	eb c0                	jmp    c00025c0 <intr_exit>

c0002600 <intr0x02entry>:
c0002600:	6a 00                	push   $0x0
c0002602:	1e                   	push   %ds
c0002603:	06                   	push   %es
c0002604:	0f a0                	push   %fs
c0002606:	0f a8                	push   %gs
c0002608:	60                   	pusha  
c0002609:	b0 20                	mov    $0x20,%al
c000260b:	e6 a0                	out    %al,$0xa0
c000260d:	e6 20                	out    %al,$0x20
c000260f:	6a 02                	push   $0x2
c0002611:	ff 15 a8 73 00 c0    	call   *0xc00073a8
c0002617:	eb a7                	jmp    c00025c0 <intr_exit>

c0002619 <intr0x03entry>:
c0002619:	6a 00                	push   $0x0
c000261b:	1e                   	push   %ds
c000261c:	06                   	push   %es
c000261d:	0f a0                	push   %fs
c000261f:	0f a8                	push   %gs
c0002621:	60                   	pusha  
c0002622:	b0 20                	mov    $0x20,%al
c0002624:	e6 a0                	out    %al,$0xa0
c0002626:	e6 20                	out    %al,$0x20
c0002628:	6a 03                	push   $0x3
c000262a:	ff 15 ac 73 00 c0    	call   *0xc00073ac
c0002630:	eb 8e                	jmp    c00025c0 <intr_exit>

c0002632 <intr0x04entry>:
c0002632:	6a 00                	push   $0x0
c0002634:	1e                   	push   %ds
c0002635:	06                   	push   %es
c0002636:	0f a0                	push   %fs
c0002638:	0f a8                	push   %gs
c000263a:	60                   	pusha  
c000263b:	b0 20                	mov    $0x20,%al
c000263d:	e6 a0                	out    %al,$0xa0
c000263f:	e6 20                	out    %al,$0x20
c0002641:	6a 04                	push   $0x4
c0002643:	ff 15 b0 73 00 c0    	call   *0xc00073b0
c0002649:	e9 72 ff ff ff       	jmp    c00025c0 <intr_exit>

c000264e <intr0x05entry>:
c000264e:	6a 00                	push   $0x0
c0002650:	1e                   	push   %ds
c0002651:	06                   	push   %es
c0002652:	0f a0                	push   %fs
c0002654:	0f a8                	push   %gs
c0002656:	60                   	pusha  
c0002657:	b0 20                	mov    $0x20,%al
c0002659:	e6 a0                	out    %al,$0xa0
c000265b:	e6 20                	out    %al,$0x20
c000265d:	6a 05                	push   $0x5
c000265f:	ff 15 b4 73 00 c0    	call   *0xc00073b4
c0002665:	e9 56 ff ff ff       	jmp    c00025c0 <intr_exit>

c000266a <intr0x06entry>:
c000266a:	6a 00                	push   $0x0
c000266c:	1e                   	push   %ds
c000266d:	06                   	push   %es
c000266e:	0f a0                	push   %fs
c0002670:	0f a8                	push   %gs
c0002672:	60                   	pusha  
c0002673:	b0 20                	mov    $0x20,%al
c0002675:	e6 a0                	out    %al,$0xa0
c0002677:	e6 20                	out    %al,$0x20
c0002679:	6a 06                	push   $0x6
c000267b:	ff 15 b8 73 00 c0    	call   *0xc00073b8
c0002681:	e9 3a ff ff ff       	jmp    c00025c0 <intr_exit>

c0002686 <intr0x07entry>:
c0002686:	6a 00                	push   $0x0
c0002688:	1e                   	push   %ds
c0002689:	06                   	push   %es
c000268a:	0f a0                	push   %fs
c000268c:	0f a8                	push   %gs
c000268e:	60                   	pusha  
c000268f:	b0 20                	mov    $0x20,%al
c0002691:	e6 a0                	out    %al,$0xa0
c0002693:	e6 20                	out    %al,$0x20
c0002695:	6a 07                	push   $0x7
c0002697:	ff 15 bc 73 00 c0    	call   *0xc00073bc
c000269d:	e9 1e ff ff ff       	jmp    c00025c0 <intr_exit>

c00026a2 <intr0x08entry>:
c00026a2:	90                   	nop
c00026a3:	1e                   	push   %ds
c00026a4:	06                   	push   %es
c00026a5:	0f a0                	push   %fs
c00026a7:	0f a8                	push   %gs
c00026a9:	60                   	pusha  
c00026aa:	b0 20                	mov    $0x20,%al
c00026ac:	e6 a0                	out    %al,$0xa0
c00026ae:	e6 20                	out    %al,$0x20
c00026b0:	6a 08                	push   $0x8
c00026b2:	ff 15 c0 73 00 c0    	call   *0xc00073c0
c00026b8:	e9 03 ff ff ff       	jmp    c00025c0 <intr_exit>

c00026bd <intr0x09entry>:
c00026bd:	6a 00                	push   $0x0
c00026bf:	1e                   	push   %ds
c00026c0:	06                   	push   %es
c00026c1:	0f a0                	push   %fs
c00026c3:	0f a8                	push   %gs
c00026c5:	60                   	pusha  
c00026c6:	b0 20                	mov    $0x20,%al
c00026c8:	e6 a0                	out    %al,$0xa0
c00026ca:	e6 20                	out    %al,$0x20
c00026cc:	6a 09                	push   $0x9
c00026ce:	ff 15 c4 73 00 c0    	call   *0xc00073c4
c00026d4:	e9 e7 fe ff ff       	jmp    c00025c0 <intr_exit>

c00026d9 <intr0x0aentry>:
c00026d9:	90                   	nop
c00026da:	1e                   	push   %ds
c00026db:	06                   	push   %es
c00026dc:	0f a0                	push   %fs
c00026de:	0f a8                	push   %gs
c00026e0:	60                   	pusha  
c00026e1:	b0 20                	mov    $0x20,%al
c00026e3:	e6 a0                	out    %al,$0xa0
c00026e5:	e6 20                	out    %al,$0x20
c00026e7:	6a 0a                	push   $0xa
c00026e9:	ff 15 c8 73 00 c0    	call   *0xc00073c8
c00026ef:	e9 cc fe ff ff       	jmp    c00025c0 <intr_exit>

c00026f4 <intr0x0bentry>:
c00026f4:	90                   	nop
c00026f5:	1e                   	push   %ds
c00026f6:	06                   	push   %es
c00026f7:	0f a0                	push   %fs
c00026f9:	0f a8                	push   %gs
c00026fb:	60                   	pusha  
c00026fc:	b0 20                	mov    $0x20,%al
c00026fe:	e6 a0                	out    %al,$0xa0
c0002700:	e6 20                	out    %al,$0x20
c0002702:	6a 0b                	push   $0xb
c0002704:	ff 15 cc 73 00 c0    	call   *0xc00073cc
c000270a:	e9 b1 fe ff ff       	jmp    c00025c0 <intr_exit>

c000270f <intr0x0centry>:
c000270f:	6a 00                	push   $0x0
c0002711:	1e                   	push   %ds
c0002712:	06                   	push   %es
c0002713:	0f a0                	push   %fs
c0002715:	0f a8                	push   %gs
c0002717:	60                   	pusha  
c0002718:	b0 20                	mov    $0x20,%al
c000271a:	e6 a0                	out    %al,$0xa0
c000271c:	e6 20                	out    %al,$0x20
c000271e:	6a 0c                	push   $0xc
c0002720:	ff 15 d0 73 00 c0    	call   *0xc00073d0
c0002726:	e9 95 fe ff ff       	jmp    c00025c0 <intr_exit>

c000272b <intr0x0dentry>:
c000272b:	90                   	nop
c000272c:	1e                   	push   %ds
c000272d:	06                   	push   %es
c000272e:	0f a0                	push   %fs
c0002730:	0f a8                	push   %gs
c0002732:	60                   	pusha  
c0002733:	b0 20                	mov    $0x20,%al
c0002735:	e6 a0                	out    %al,$0xa0
c0002737:	e6 20                	out    %al,$0x20
c0002739:	6a 0d                	push   $0xd
c000273b:	ff 15 d4 73 00 c0    	call   *0xc00073d4
c0002741:	e9 7a fe ff ff       	jmp    c00025c0 <intr_exit>

c0002746 <intr0x0eentry>:
c0002746:	90                   	nop
c0002747:	1e                   	push   %ds
c0002748:	06                   	push   %es
c0002749:	0f a0                	push   %fs
c000274b:	0f a8                	push   %gs
c000274d:	60                   	pusha  
c000274e:	b0 20                	mov    $0x20,%al
c0002750:	e6 a0                	out    %al,$0xa0
c0002752:	e6 20                	out    %al,$0x20
c0002754:	6a 0e                	push   $0xe
c0002756:	ff 15 d8 73 00 c0    	call   *0xc00073d8
c000275c:	e9 5f fe ff ff       	jmp    c00025c0 <intr_exit>

c0002761 <intr0x0fentry>:
c0002761:	6a 00                	push   $0x0
c0002763:	1e                   	push   %ds
c0002764:	06                   	push   %es
c0002765:	0f a0                	push   %fs
c0002767:	0f a8                	push   %gs
c0002769:	60                   	pusha  
c000276a:	b0 20                	mov    $0x20,%al
c000276c:	e6 a0                	out    %al,$0xa0
c000276e:	e6 20                	out    %al,$0x20
c0002770:	6a 0f                	push   $0xf
c0002772:	ff 15 dc 73 00 c0    	call   *0xc00073dc
c0002778:	e9 43 fe ff ff       	jmp    c00025c0 <intr_exit>

c000277d <intr0x10entry>:
c000277d:	6a 00                	push   $0x0
c000277f:	1e                   	push   %ds
c0002780:	06                   	push   %es
c0002781:	0f a0                	push   %fs
c0002783:	0f a8                	push   %gs
c0002785:	60                   	pusha  
c0002786:	b0 20                	mov    $0x20,%al
c0002788:	e6 a0                	out    %al,$0xa0
c000278a:	e6 20                	out    %al,$0x20
c000278c:	6a 10                	push   $0x10
c000278e:	ff 15 e0 73 00 c0    	call   *0xc00073e0
c0002794:	e9 27 fe ff ff       	jmp    c00025c0 <intr_exit>

c0002799 <intr0x11entry>:
c0002799:	90                   	nop
c000279a:	1e                   	push   %ds
c000279b:	06                   	push   %es
c000279c:	0f a0                	push   %fs
c000279e:	0f a8                	push   %gs
c00027a0:	60                   	pusha  
c00027a1:	b0 20                	mov    $0x20,%al
c00027a3:	e6 a0                	out    %al,$0xa0
c00027a5:	e6 20                	out    %al,$0x20
c00027a7:	6a 11                	push   $0x11
c00027a9:	ff 15 e4 73 00 c0    	call   *0xc00073e4
c00027af:	e9 0c fe ff ff       	jmp    c00025c0 <intr_exit>

c00027b4 <intr0x12entry>:
c00027b4:	6a 00                	push   $0x0
c00027b6:	1e                   	push   %ds
c00027b7:	06                   	push   %es
c00027b8:	0f a0                	push   %fs
c00027ba:	0f a8                	push   %gs
c00027bc:	60                   	pusha  
c00027bd:	b0 20                	mov    $0x20,%al
c00027bf:	e6 a0                	out    %al,$0xa0
c00027c1:	e6 20                	out    %al,$0x20
c00027c3:	6a 12                	push   $0x12
c00027c5:	ff 15 e8 73 00 c0    	call   *0xc00073e8
c00027cb:	e9 f0 fd ff ff       	jmp    c00025c0 <intr_exit>

c00027d0 <intr0x13entry>:
c00027d0:	6a 00                	push   $0x0
c00027d2:	1e                   	push   %ds
c00027d3:	06                   	push   %es
c00027d4:	0f a0                	push   %fs
c00027d6:	0f a8                	push   %gs
c00027d8:	60                   	pusha  
c00027d9:	b0 20                	mov    $0x20,%al
c00027db:	e6 a0                	out    %al,$0xa0
c00027dd:	e6 20                	out    %al,$0x20
c00027df:	6a 13                	push   $0x13
c00027e1:	ff 15 ec 73 00 c0    	call   *0xc00073ec
c00027e7:	e9 d4 fd ff ff       	jmp    c00025c0 <intr_exit>

c00027ec <intr0x14entry>:
c00027ec:	6a 00                	push   $0x0
c00027ee:	1e                   	push   %ds
c00027ef:	06                   	push   %es
c00027f0:	0f a0                	push   %fs
c00027f2:	0f a8                	push   %gs
c00027f4:	60                   	pusha  
c00027f5:	b0 20                	mov    $0x20,%al
c00027f7:	e6 a0                	out    %al,$0xa0
c00027f9:	e6 20                	out    %al,$0x20
c00027fb:	6a 14                	push   $0x14
c00027fd:	ff 15 f0 73 00 c0    	call   *0xc00073f0
c0002803:	e9 b8 fd ff ff       	jmp    c00025c0 <intr_exit>

c0002808 <intr0x15entry>:
c0002808:	6a 00                	push   $0x0
c000280a:	1e                   	push   %ds
c000280b:	06                   	push   %es
c000280c:	0f a0                	push   %fs
c000280e:	0f a8                	push   %gs
c0002810:	60                   	pusha  
c0002811:	b0 20                	mov    $0x20,%al
c0002813:	e6 a0                	out    %al,$0xa0
c0002815:	e6 20                	out    %al,$0x20
c0002817:	6a 15                	push   $0x15
c0002819:	ff 15 f4 73 00 c0    	call   *0xc00073f4
c000281f:	e9 9c fd ff ff       	jmp    c00025c0 <intr_exit>

c0002824 <intr0x16entry>:
c0002824:	6a 00                	push   $0x0
c0002826:	1e                   	push   %ds
c0002827:	06                   	push   %es
c0002828:	0f a0                	push   %fs
c000282a:	0f a8                	push   %gs
c000282c:	60                   	pusha  
c000282d:	b0 20                	mov    $0x20,%al
c000282f:	e6 a0                	out    %al,$0xa0
c0002831:	e6 20                	out    %al,$0x20
c0002833:	6a 16                	push   $0x16
c0002835:	ff 15 f8 73 00 c0    	call   *0xc00073f8
c000283b:	e9 80 fd ff ff       	jmp    c00025c0 <intr_exit>

c0002840 <intr0x17entry>:
c0002840:	6a 00                	push   $0x0
c0002842:	1e                   	push   %ds
c0002843:	06                   	push   %es
c0002844:	0f a0                	push   %fs
c0002846:	0f a8                	push   %gs
c0002848:	60                   	pusha  
c0002849:	b0 20                	mov    $0x20,%al
c000284b:	e6 a0                	out    %al,$0xa0
c000284d:	e6 20                	out    %al,$0x20
c000284f:	6a 17                	push   $0x17
c0002851:	ff 15 fc 73 00 c0    	call   *0xc00073fc
c0002857:	e9 64 fd ff ff       	jmp    c00025c0 <intr_exit>

c000285c <intr0x18entry>:
c000285c:	90                   	nop
c000285d:	1e                   	push   %ds
c000285e:	06                   	push   %es
c000285f:	0f a0                	push   %fs
c0002861:	0f a8                	push   %gs
c0002863:	60                   	pusha  
c0002864:	b0 20                	mov    $0x20,%al
c0002866:	e6 a0                	out    %al,$0xa0
c0002868:	e6 20                	out    %al,$0x20
c000286a:	6a 18                	push   $0x18
c000286c:	ff 15 00 74 00 c0    	call   *0xc0007400
c0002872:	e9 49 fd ff ff       	jmp    c00025c0 <intr_exit>

c0002877 <intr0x19entry>:
c0002877:	6a 00                	push   $0x0
c0002879:	1e                   	push   %ds
c000287a:	06                   	push   %es
c000287b:	0f a0                	push   %fs
c000287d:	0f a8                	push   %gs
c000287f:	60                   	pusha  
c0002880:	b0 20                	mov    $0x20,%al
c0002882:	e6 a0                	out    %al,$0xa0
c0002884:	e6 20                	out    %al,$0x20
c0002886:	6a 19                	push   $0x19
c0002888:	ff 15 04 74 00 c0    	call   *0xc0007404
c000288e:	e9 2d fd ff ff       	jmp    c00025c0 <intr_exit>

c0002893 <intr0x1aentry>:
c0002893:	90                   	nop
c0002894:	1e                   	push   %ds
c0002895:	06                   	push   %es
c0002896:	0f a0                	push   %fs
c0002898:	0f a8                	push   %gs
c000289a:	60                   	pusha  
c000289b:	b0 20                	mov    $0x20,%al
c000289d:	e6 a0                	out    %al,$0xa0
c000289f:	e6 20                	out    %al,$0x20
c00028a1:	6a 1a                	push   $0x1a
c00028a3:	ff 15 08 74 00 c0    	call   *0xc0007408
c00028a9:	e9 12 fd ff ff       	jmp    c00025c0 <intr_exit>

c00028ae <intr0x1bentry>:
c00028ae:	90                   	nop
c00028af:	1e                   	push   %ds
c00028b0:	06                   	push   %es
c00028b1:	0f a0                	push   %fs
c00028b3:	0f a8                	push   %gs
c00028b5:	60                   	pusha  
c00028b6:	b0 20                	mov    $0x20,%al
c00028b8:	e6 a0                	out    %al,$0xa0
c00028ba:	e6 20                	out    %al,$0x20
c00028bc:	6a 1b                	push   $0x1b
c00028be:	ff 15 0c 74 00 c0    	call   *0xc000740c
c00028c4:	e9 f7 fc ff ff       	jmp    c00025c0 <intr_exit>

c00028c9 <intr0x1centry>:
c00028c9:	6a 00                	push   $0x0
c00028cb:	1e                   	push   %ds
c00028cc:	06                   	push   %es
c00028cd:	0f a0                	push   %fs
c00028cf:	0f a8                	push   %gs
c00028d1:	60                   	pusha  
c00028d2:	b0 20                	mov    $0x20,%al
c00028d4:	e6 a0                	out    %al,$0xa0
c00028d6:	e6 20                	out    %al,$0x20
c00028d8:	6a 1c                	push   $0x1c
c00028da:	ff 15 10 74 00 c0    	call   *0xc0007410
c00028e0:	e9 db fc ff ff       	jmp    c00025c0 <intr_exit>

c00028e5 <intr0x1dentry>:
c00028e5:	90                   	nop
c00028e6:	1e                   	push   %ds
c00028e7:	06                   	push   %es
c00028e8:	0f a0                	push   %fs
c00028ea:	0f a8                	push   %gs
c00028ec:	60                   	pusha  
c00028ed:	b0 20                	mov    $0x20,%al
c00028ef:	e6 a0                	out    %al,$0xa0
c00028f1:	e6 20                	out    %al,$0x20
c00028f3:	6a 1d                	push   $0x1d
c00028f5:	ff 15 14 74 00 c0    	call   *0xc0007414
c00028fb:	e9 c0 fc ff ff       	jmp    c00025c0 <intr_exit>

c0002900 <intr0x1eentry>:
c0002900:	90                   	nop
c0002901:	1e                   	push   %ds
c0002902:	06                   	push   %es
c0002903:	0f a0                	push   %fs
c0002905:	0f a8                	push   %gs
c0002907:	60                   	pusha  
c0002908:	b0 20                	mov    $0x20,%al
c000290a:	e6 a0                	out    %al,$0xa0
c000290c:	e6 20                	out    %al,$0x20
c000290e:	6a 1e                	push   $0x1e
c0002910:	ff 15 18 74 00 c0    	call   *0xc0007418
c0002916:	e9 a5 fc ff ff       	jmp    c00025c0 <intr_exit>

c000291b <intr0x1fentry>:
c000291b:	6a 00                	push   $0x0
c000291d:	1e                   	push   %ds
c000291e:	06                   	push   %es
c000291f:	0f a0                	push   %fs
c0002921:	0f a8                	push   %gs
c0002923:	60                   	pusha  
c0002924:	b0 20                	mov    $0x20,%al
c0002926:	e6 a0                	out    %al,$0xa0
c0002928:	e6 20                	out    %al,$0x20
c000292a:	6a 1f                	push   $0x1f
c000292c:	ff 15 1c 74 00 c0    	call   *0xc000741c
c0002932:	e9 89 fc ff ff       	jmp    c00025c0 <intr_exit>

c0002937 <intr0x20entry>:
c0002937:	6a 00                	push   $0x0
c0002939:	1e                   	push   %ds
c000293a:	06                   	push   %es
c000293b:	0f a0                	push   %fs
c000293d:	0f a8                	push   %gs
c000293f:	60                   	pusha  
c0002940:	b0 20                	mov    $0x20,%al
c0002942:	e6 a0                	out    %al,$0xa0
c0002944:	e6 20                	out    %al,$0x20
c0002946:	6a 20                	push   $0x20
c0002948:	ff 15 20 74 00 c0    	call   *0xc0007420
c000294e:	e9 6d fc ff ff       	jmp    c00025c0 <intr_exit>

c0002953 <intr0x21entry>:
c0002953:	6a 00                	push   $0x0
c0002955:	1e                   	push   %ds
c0002956:	06                   	push   %es
c0002957:	0f a0                	push   %fs
c0002959:	0f a8                	push   %gs
c000295b:	60                   	pusha  
c000295c:	b0 20                	mov    $0x20,%al
c000295e:	e6 a0                	out    %al,$0xa0
c0002960:	e6 20                	out    %al,$0x20
c0002962:	6a 21                	push   $0x21
c0002964:	ff 15 24 74 00 c0    	call   *0xc0007424
c000296a:	e9 51 fc ff ff       	jmp    c00025c0 <intr_exit>

c000296f <intr0x22entry>:
c000296f:	6a 00                	push   $0x0
c0002971:	1e                   	push   %ds
c0002972:	06                   	push   %es
c0002973:	0f a0                	push   %fs
c0002975:	0f a8                	push   %gs
c0002977:	60                   	pusha  
c0002978:	b0 20                	mov    $0x20,%al
c000297a:	e6 a0                	out    %al,$0xa0
c000297c:	e6 20                	out    %al,$0x20
c000297e:	6a 22                	push   $0x22
c0002980:	ff 15 28 74 00 c0    	call   *0xc0007428
c0002986:	e9 35 fc ff ff       	jmp    c00025c0 <intr_exit>

c000298b <intr0x23entry>:
c000298b:	6a 00                	push   $0x0
c000298d:	1e                   	push   %ds
c000298e:	06                   	push   %es
c000298f:	0f a0                	push   %fs
c0002991:	0f a8                	push   %gs
c0002993:	60                   	pusha  
c0002994:	b0 20                	mov    $0x20,%al
c0002996:	e6 a0                	out    %al,$0xa0
c0002998:	e6 20                	out    %al,$0x20
c000299a:	6a 23                	push   $0x23
c000299c:	ff 15 2c 74 00 c0    	call   *0xc000742c
c00029a2:	e9 19 fc ff ff       	jmp    c00025c0 <intr_exit>

c00029a7 <intr0x24entry>:
c00029a7:	6a 00                	push   $0x0
c00029a9:	1e                   	push   %ds
c00029aa:	06                   	push   %es
c00029ab:	0f a0                	push   %fs
c00029ad:	0f a8                	push   %gs
c00029af:	60                   	pusha  
c00029b0:	b0 20                	mov    $0x20,%al
c00029b2:	e6 a0                	out    %al,$0xa0
c00029b4:	e6 20                	out    %al,$0x20
c00029b6:	6a 24                	push   $0x24
c00029b8:	ff 15 30 74 00 c0    	call   *0xc0007430
c00029be:	e9 fd fb ff ff       	jmp    c00025c0 <intr_exit>

c00029c3 <intr0x25entry>:
c00029c3:	6a 00                	push   $0x0
c00029c5:	1e                   	push   %ds
c00029c6:	06                   	push   %es
c00029c7:	0f a0                	push   %fs
c00029c9:	0f a8                	push   %gs
c00029cb:	60                   	pusha  
c00029cc:	b0 20                	mov    $0x20,%al
c00029ce:	e6 a0                	out    %al,$0xa0
c00029d0:	e6 20                	out    %al,$0x20
c00029d2:	6a 25                	push   $0x25
c00029d4:	ff 15 34 74 00 c0    	call   *0xc0007434
c00029da:	e9 e1 fb ff ff       	jmp    c00025c0 <intr_exit>

c00029df <intr0x26entry>:
c00029df:	6a 00                	push   $0x0
c00029e1:	1e                   	push   %ds
c00029e2:	06                   	push   %es
c00029e3:	0f a0                	push   %fs
c00029e5:	0f a8                	push   %gs
c00029e7:	60                   	pusha  
c00029e8:	b0 20                	mov    $0x20,%al
c00029ea:	e6 a0                	out    %al,$0xa0
c00029ec:	e6 20                	out    %al,$0x20
c00029ee:	6a 26                	push   $0x26
c00029f0:	ff 15 38 74 00 c0    	call   *0xc0007438
c00029f6:	e9 c5 fb ff ff       	jmp    c00025c0 <intr_exit>

c00029fb <intr0x27entry>:
c00029fb:	6a 00                	push   $0x0
c00029fd:	1e                   	push   %ds
c00029fe:	06                   	push   %es
c00029ff:	0f a0                	push   %fs
c0002a01:	0f a8                	push   %gs
c0002a03:	60                   	pusha  
c0002a04:	b0 20                	mov    $0x20,%al
c0002a06:	e6 a0                	out    %al,$0xa0
c0002a08:	e6 20                	out    %al,$0x20
c0002a0a:	6a 27                	push   $0x27
c0002a0c:	ff 15 3c 74 00 c0    	call   *0xc000743c
c0002a12:	e9 a9 fb ff ff       	jmp    c00025c0 <intr_exit>

c0002a17 <intr0x28entry>:
c0002a17:	6a 00                	push   $0x0
c0002a19:	1e                   	push   %ds
c0002a1a:	06                   	push   %es
c0002a1b:	0f a0                	push   %fs
c0002a1d:	0f a8                	push   %gs
c0002a1f:	60                   	pusha  
c0002a20:	b0 20                	mov    $0x20,%al
c0002a22:	e6 a0                	out    %al,$0xa0
c0002a24:	e6 20                	out    %al,$0x20
c0002a26:	6a 28                	push   $0x28
c0002a28:	ff 15 40 74 00 c0    	call   *0xc0007440
c0002a2e:	e9 8d fb ff ff       	jmp    c00025c0 <intr_exit>

c0002a33 <intr0x29entry>:
c0002a33:	6a 00                	push   $0x0
c0002a35:	1e                   	push   %ds
c0002a36:	06                   	push   %es
c0002a37:	0f a0                	push   %fs
c0002a39:	0f a8                	push   %gs
c0002a3b:	60                   	pusha  
c0002a3c:	b0 20                	mov    $0x20,%al
c0002a3e:	e6 a0                	out    %al,$0xa0
c0002a40:	e6 20                	out    %al,$0x20
c0002a42:	6a 29                	push   $0x29
c0002a44:	ff 15 44 74 00 c0    	call   *0xc0007444
c0002a4a:	e9 71 fb ff ff       	jmp    c00025c0 <intr_exit>

c0002a4f <intr0x2aentry>:
c0002a4f:	6a 00                	push   $0x0
c0002a51:	1e                   	push   %ds
c0002a52:	06                   	push   %es
c0002a53:	0f a0                	push   %fs
c0002a55:	0f a8                	push   %gs
c0002a57:	60                   	pusha  
c0002a58:	b0 20                	mov    $0x20,%al
c0002a5a:	e6 a0                	out    %al,$0xa0
c0002a5c:	e6 20                	out    %al,$0x20
c0002a5e:	6a 2a                	push   $0x2a
c0002a60:	ff 15 48 74 00 c0    	call   *0xc0007448
c0002a66:	e9 55 fb ff ff       	jmp    c00025c0 <intr_exit>

c0002a6b <intr0x2bentry>:
c0002a6b:	6a 00                	push   $0x0
c0002a6d:	1e                   	push   %ds
c0002a6e:	06                   	push   %es
c0002a6f:	0f a0                	push   %fs
c0002a71:	0f a8                	push   %gs
c0002a73:	60                   	pusha  
c0002a74:	b0 20                	mov    $0x20,%al
c0002a76:	e6 a0                	out    %al,$0xa0
c0002a78:	e6 20                	out    %al,$0x20
c0002a7a:	6a 2b                	push   $0x2b
c0002a7c:	ff 15 4c 74 00 c0    	call   *0xc000744c
c0002a82:	e9 39 fb ff ff       	jmp    c00025c0 <intr_exit>

c0002a87 <intr0x2centry>:
c0002a87:	6a 00                	push   $0x0
c0002a89:	1e                   	push   %ds
c0002a8a:	06                   	push   %es
c0002a8b:	0f a0                	push   %fs
c0002a8d:	0f a8                	push   %gs
c0002a8f:	60                   	pusha  
c0002a90:	b0 20                	mov    $0x20,%al
c0002a92:	e6 a0                	out    %al,$0xa0
c0002a94:	e6 20                	out    %al,$0x20
c0002a96:	6a 2c                	push   $0x2c
c0002a98:	ff 15 50 74 00 c0    	call   *0xc0007450
c0002a9e:	e9 1d fb ff ff       	jmp    c00025c0 <intr_exit>

c0002aa3 <intr0x2dentry>:
c0002aa3:	6a 00                	push   $0x0
c0002aa5:	1e                   	push   %ds
c0002aa6:	06                   	push   %es
c0002aa7:	0f a0                	push   %fs
c0002aa9:	0f a8                	push   %gs
c0002aab:	60                   	pusha  
c0002aac:	b0 20                	mov    $0x20,%al
c0002aae:	e6 a0                	out    %al,$0xa0
c0002ab0:	e6 20                	out    %al,$0x20
c0002ab2:	6a 2d                	push   $0x2d
c0002ab4:	ff 15 54 74 00 c0    	call   *0xc0007454
c0002aba:	e9 01 fb ff ff       	jmp    c00025c0 <intr_exit>

c0002abf <intr0x2eentry>:
c0002abf:	6a 00                	push   $0x0
c0002ac1:	1e                   	push   %ds
c0002ac2:	06                   	push   %es
c0002ac3:	0f a0                	push   %fs
c0002ac5:	0f a8                	push   %gs
c0002ac7:	60                   	pusha  
c0002ac8:	b0 20                	mov    $0x20,%al
c0002aca:	e6 a0                	out    %al,$0xa0
c0002acc:	e6 20                	out    %al,$0x20
c0002ace:	6a 2e                	push   $0x2e
c0002ad0:	ff 15 58 74 00 c0    	call   *0xc0007458
c0002ad6:	e9 e5 fa ff ff       	jmp    c00025c0 <intr_exit>

c0002adb <intr0x2fentry>:
c0002adb:	6a 00                	push   $0x0
c0002add:	1e                   	push   %ds
c0002ade:	06                   	push   %es
c0002adf:	0f a0                	push   %fs
c0002ae1:	0f a8                	push   %gs
c0002ae3:	60                   	pusha  
c0002ae4:	b0 20                	mov    $0x20,%al
c0002ae6:	e6 a0                	out    %al,$0xa0
c0002ae8:	e6 20                	out    %al,$0x20
c0002aea:	6a 2f                	push   $0x2f
c0002aec:	ff 15 5c 74 00 c0    	call   *0xc000745c
c0002af2:	e9 c9 fa ff ff       	jmp    c00025c0 <intr_exit>

c0002af7 <syscall_handler>:
c0002af7:	6a 00                	push   $0x0
c0002af9:	1e                   	push   %ds
c0002afa:	06                   	push   %es
c0002afb:	0f a0                	push   %fs
c0002afd:	0f a8                	push   %gs
c0002aff:	60                   	pusha  
c0002b00:	68 80 00 00 00       	push   $0x80
c0002b05:	52                   	push   %edx
c0002b06:	51                   	push   %ecx
c0002b07:	53                   	push   %ebx
c0002b08:	ff 14 85 e0 7c 00 c0 	call   *-0x3fff8320(,%eax,4)
c0002b0f:	83 c4 0c             	add    $0xc,%esp
c0002b12:	89 44 24 20          	mov    %eax,0x20(%esp)
c0002b16:	e9 a5 fa ff ff       	jmp    c00025c0 <intr_exit>

c0002b1b <_ZL4outbth>:
c0002b1b:	55                   	push   %ebp
c0002b1c:	89 e5                	mov    %esp,%ebp
c0002b1e:	83 ec 08             	sub    $0x8,%esp
c0002b21:	8b 55 08             	mov    0x8(%ebp),%edx
c0002b24:	8b 45 0c             	mov    0xc(%ebp),%eax
c0002b27:	66 89 55 fc          	mov    %dx,-0x4(%ebp)
c0002b2b:	88 45 f8             	mov    %al,-0x8(%ebp)
c0002b2e:	0f b6 45 f8          	movzbl -0x8(%ebp),%eax
c0002b32:	0f b7 55 fc          	movzwl -0x4(%ebp),%edx
c0002b36:	ee                   	out    %al,(%dx)
c0002b37:	90                   	nop
c0002b38:	c9                   	leave  
c0002b39:	c3                   	ret    

c0002b3a <_ZL13frequency_sethhhht>:
c0002b3a:	55                   	push   %ebp
c0002b3b:	89 e5                	mov    %esp,%ebp
c0002b3d:	56                   	push   %esi
c0002b3e:	53                   	push   %ebx
c0002b3f:	83 ec 14             	sub    $0x14,%esp
c0002b42:	8b 45 08             	mov    0x8(%ebp),%eax
c0002b45:	8b 5d 0c             	mov    0xc(%ebp),%ebx
c0002b48:	8b 4d 10             	mov    0x10(%ebp),%ecx
c0002b4b:	8b 55 14             	mov    0x14(%ebp),%edx
c0002b4e:	8b 75 18             	mov    0x18(%ebp),%esi
c0002b51:	88 45 f4             	mov    %al,-0xc(%ebp)
c0002b54:	88 5d f0             	mov    %bl,-0x10(%ebp)
c0002b57:	88 4d ec             	mov    %cl,-0x14(%ebp)
c0002b5a:	88 55 e8             	mov    %dl,-0x18(%ebp)
c0002b5d:	66 89 75 e4          	mov    %si,-0x1c(%ebp)
c0002b61:	0f b6 45 f0          	movzbl -0x10(%ebp),%eax
c0002b65:	c1 e0 06             	shl    $0x6,%eax
c0002b68:	89 c2                	mov    %eax,%edx
c0002b6a:	0f b6 45 ec          	movzbl -0x14(%ebp),%eax
c0002b6e:	c1 e0 04             	shl    $0x4,%eax
c0002b71:	09 c2                	or     %eax,%edx
c0002b73:	0f b6 45 e8          	movzbl -0x18(%ebp),%eax
c0002b77:	01 c0                	add    %eax,%eax
c0002b79:	09 d0                	or     %edx,%eax
c0002b7b:	0f b6 c0             	movzbl %al,%eax
c0002b7e:	50                   	push   %eax
c0002b7f:	6a 43                	push   $0x43
c0002b81:	e8 95 ff ff ff       	call   c0002b1b <_ZL4outbth>
c0002b86:	83 c4 08             	add    $0x8,%esp
c0002b89:	0f b7 45 e4          	movzwl -0x1c(%ebp),%eax
c0002b8d:	0f b6 d0             	movzbl %al,%edx
c0002b90:	0f b6 45 f4          	movzbl -0xc(%ebp),%eax
c0002b94:	52                   	push   %edx
c0002b95:	50                   	push   %eax
c0002b96:	e8 80 ff ff ff       	call   c0002b1b <_ZL4outbth>
c0002b9b:	83 c4 08             	add    $0x8,%esp
c0002b9e:	0f b6 45 f4          	movzbl -0xc(%ebp),%eax
c0002ba2:	6a 00                	push   $0x0
c0002ba4:	50                   	push   %eax
c0002ba5:	e8 71 ff ff ff       	call   c0002b1b <_ZL4outbth>
c0002baa:	83 c4 08             	add    $0x8,%esp
c0002bad:	90                   	nop
c0002bae:	8d 65 f8             	lea    -0x8(%ebp),%esp
c0002bb1:	5b                   	pop    %ebx
c0002bb2:	5e                   	pop    %esi
c0002bb3:	5d                   	pop    %ebp
c0002bb4:	c3                   	ret    

c0002bb5 <_ZL18intr_timer_handlerv>:
c0002bb5:	55                   	push   %ebp
c0002bb6:	89 e5                	mov    %esp,%ebp
c0002bb8:	83 ec 18             	sub    $0x18,%esp
c0002bbb:	e8 5c 05 00 00       	call   c000311c <_Z14running_threadv>
c0002bc0:	89 45 f4             	mov    %eax,-0xc(%ebp)
c0002bc3:	8b 45 f4             	mov    -0xc(%ebp),%eax
c0002bc6:	8b 40 20             	mov    0x20(%eax),%eax
c0002bc9:	8d 50 01             	lea    0x1(%eax),%edx
c0002bcc:	8b 45 f4             	mov    -0xc(%ebp),%eax
c0002bcf:	89 50 20             	mov    %edx,0x20(%eax)
c0002bd2:	a1 c8 79 00 c0       	mov    0xc00079c8,%eax
c0002bd7:	83 c0 01             	add    $0x1,%eax
c0002bda:	a3 c8 79 00 c0       	mov    %eax,0xc00079c8
c0002bdf:	8b 45 f4             	mov    -0xc(%ebp),%eax
c0002be2:	0f b6 40 1d          	movzbl 0x1d(%eax),%eax
c0002be6:	84 c0                	test   %al,%al
c0002be8:	75 07                	jne    c0002bf1 <_ZL18intr_timer_handlerv+0x3c>
c0002bea:	e8 2a 07 00 00       	call   c0003319 <_Z8schedulev>
c0002bef:	eb 10                	jmp    c0002c01 <_ZL18intr_timer_handlerv+0x4c>
c0002bf1:	8b 45 f4             	mov    -0xc(%ebp),%eax
c0002bf4:	0f b6 40 1d          	movzbl 0x1d(%eax),%eax
c0002bf8:	8d 50 ff             	lea    -0x1(%eax),%edx
c0002bfb:	8b 45 f4             	mov    -0xc(%ebp),%eax
c0002bfe:	88 50 1d             	mov    %dl,0x1d(%eax)
c0002c01:	90                   	nop
c0002c02:	c9                   	leave  
c0002c03:	c3                   	ret    

c0002c04 <_Z10timer_initv>:
c0002c04:	55                   	push   %ebp
c0002c05:	89 e5                	mov    %esp,%ebp
c0002c07:	83 ec 08             	sub    $0x8,%esp
c0002c0a:	83 ec 0c             	sub    $0xc,%esp
c0002c0d:	68 d5 56 00 c0       	push   $0xc00056d5
c0002c12:	e8 ca eb ff ff       	call   c00017e1 <_Z8k_printfPKcz>
c0002c17:	83 c4 10             	add    $0x10,%esp
c0002c1a:	83 ec 0c             	sub    $0xc,%esp
c0002c1d:	68 9b 2e 00 00       	push   $0x2e9b
c0002c22:	6a 02                	push   $0x2
c0002c24:	6a 03                	push   $0x3
c0002c26:	6a 00                	push   $0x0
c0002c28:	6a 40                	push   $0x40
c0002c2a:	e8 0b ff ff ff       	call   c0002b3a <_ZL13frequency_sethhhht>
c0002c2f:	83 c4 20             	add    $0x20,%esp
c0002c32:	83 ec 08             	sub    $0x8,%esp
c0002c35:	68 b5 2b 00 c0       	push   $0xc0002bb5
c0002c3a:	6a 20                	push   $0x20
c0002c3c:	e8 e3 f8 ff ff       	call   c0002524 <_Z16register_handlerhPv>
c0002c41:	83 c4 10             	add    $0x10,%esp
c0002c44:	83 ec 0c             	sub    $0xc,%esp
c0002c47:	68 e7 56 00 c0       	push   $0xc00056e7
c0002c4c:	e8 90 eb ff ff       	call   c00017e1 <_Z8k_printfPKcz>
c0002c51:	83 c4 10             	add    $0x10,%esp
c0002c54:	90                   	nop
c0002c55:	c9                   	leave  
c0002c56:	c3                   	ret    
c0002c57:	90                   	nop

c0002c58 <_ZN4list4initEv>:
c0002c58:	55                   	push   %ebp
c0002c59:	89 e5                	mov    %esp,%ebp
c0002c5b:	8b 45 08             	mov    0x8(%ebp),%eax
c0002c5e:	c7 00 00 00 00 00    	movl   $0x0,(%eax)
c0002c64:	8b 45 08             	mov    0x8(%ebp),%eax
c0002c67:	8d 50 08             	lea    0x8(%eax),%edx
c0002c6a:	8b 45 08             	mov    0x8(%ebp),%eax
c0002c6d:	89 50 04             	mov    %edx,0x4(%eax)
c0002c70:	8b 45 08             	mov    0x8(%ebp),%eax
c0002c73:	c7 40 0c 00 00 00 00 	movl   $0x0,0xc(%eax)
c0002c7a:	8b 55 08             	mov    0x8(%ebp),%edx
c0002c7d:	8b 45 08             	mov    0x8(%ebp),%eax
c0002c80:	89 50 08             	mov    %edx,0x8(%eax)
c0002c83:	8b 45 08             	mov    0x8(%ebp),%eax
c0002c86:	c7 40 10 00 00 00 00 	movl   $0x0,0x10(%eax)
c0002c8d:	90                   	nop
c0002c8e:	5d                   	pop    %ebp
c0002c8f:	c3                   	ret    

c0002c90 <_ZN4list13insert_beforeEP9list_elemS1_>:
c0002c90:	55                   	push   %ebp
c0002c91:	89 e5                	mov    %esp,%ebp
c0002c93:	83 ec 18             	sub    $0x18,%esp
c0002c96:	e8 11 f8 ff ff       	call   c00024ac <_Z12intr_disablev>
c0002c9b:	89 45 f4             	mov    %eax,-0xc(%ebp)
c0002c9e:	8b 45 0c             	mov    0xc(%ebp),%eax
c0002ca1:	8b 00                	mov    (%eax),%eax
c0002ca3:	8b 55 10             	mov    0x10(%ebp),%edx
c0002ca6:	89 50 04             	mov    %edx,0x4(%eax)
c0002ca9:	8b 45 0c             	mov    0xc(%ebp),%eax
c0002cac:	8b 10                	mov    (%eax),%edx
c0002cae:	8b 45 10             	mov    0x10(%ebp),%eax
c0002cb1:	89 10                	mov    %edx,(%eax)
c0002cb3:	8b 45 10             	mov    0x10(%ebp),%eax
c0002cb6:	8b 55 0c             	mov    0xc(%ebp),%edx
c0002cb9:	89 50 04             	mov    %edx,0x4(%eax)
c0002cbc:	8b 45 0c             	mov    0xc(%ebp),%eax
c0002cbf:	8b 55 10             	mov    0x10(%ebp),%edx
c0002cc2:	89 10                	mov    %edx,(%eax)
c0002cc4:	8b 45 08             	mov    0x8(%ebp),%eax
c0002cc7:	8b 40 10             	mov    0x10(%eax),%eax
c0002cca:	8d 50 01             	lea    0x1(%eax),%edx
c0002ccd:	8b 45 08             	mov    0x8(%ebp),%eax
c0002cd0:	89 50 10             	mov    %edx,0x10(%eax)
c0002cd3:	83 ec 0c             	sub    $0xc,%esp
c0002cd6:	ff 75 f4             	pushl  -0xc(%ebp)
c0002cd9:	e8 fc f7 ff ff       	call   c00024da <_Z15intr_set_status11intr_status>
c0002cde:	83 c4 10             	add    $0x10,%esp
c0002ce1:	90                   	nop
c0002ce2:	c9                   	leave  
c0002ce3:	c3                   	ret    

c0002ce4 <_ZN4list10push_frontEP9list_elem>:
c0002ce4:	55                   	push   %ebp
c0002ce5:	89 e5                	mov    %esp,%ebp
c0002ce7:	83 ec 08             	sub    $0x8,%esp
c0002cea:	8b 45 08             	mov    0x8(%ebp),%eax
c0002ced:	8b 40 04             	mov    0x4(%eax),%eax
c0002cf0:	83 ec 04             	sub    $0x4,%esp
c0002cf3:	ff 75 0c             	pushl  0xc(%ebp)
c0002cf6:	50                   	push   %eax
c0002cf7:	ff 75 08             	pushl  0x8(%ebp)
c0002cfa:	e8 91 ff ff ff       	call   c0002c90 <_ZN4list13insert_beforeEP9list_elemS1_>
c0002cff:	83 c4 10             	add    $0x10,%esp
c0002d02:	90                   	nop
c0002d03:	c9                   	leave  
c0002d04:	c3                   	ret    
c0002d05:	90                   	nop

c0002d06 <_ZN4list9push_backEP9list_elem>:
c0002d06:	55                   	push   %ebp
c0002d07:	89 e5                	mov    %esp,%ebp
c0002d09:	83 ec 08             	sub    $0x8,%esp
c0002d0c:	8b 45 08             	mov    0x8(%ebp),%eax
c0002d0f:	83 c0 08             	add    $0x8,%eax
c0002d12:	83 ec 04             	sub    $0x4,%esp
c0002d15:	ff 75 0c             	pushl  0xc(%ebp)
c0002d18:	50                   	push   %eax
c0002d19:	ff 75 08             	pushl  0x8(%ebp)
c0002d1c:	e8 6f ff ff ff       	call   c0002c90 <_ZN4list13insert_beforeEP9list_elemS1_>
c0002d21:	83 c4 10             	add    $0x10,%esp
c0002d24:	90                   	nop
c0002d25:	c9                   	leave  
c0002d26:	c3                   	ret    
c0002d27:	90                   	nop

c0002d28 <_ZN4list6removeEP9list_elem>:
c0002d28:	55                   	push   %ebp
c0002d29:	89 e5                	mov    %esp,%ebp
c0002d2b:	83 ec 18             	sub    $0x18,%esp
c0002d2e:	e8 79 f7 ff ff       	call   c00024ac <_Z12intr_disablev>
c0002d33:	89 45 f4             	mov    %eax,-0xc(%ebp)
c0002d36:	8b 45 0c             	mov    0xc(%ebp),%eax
c0002d39:	8b 00                	mov    (%eax),%eax
c0002d3b:	8b 55 0c             	mov    0xc(%ebp),%edx
c0002d3e:	8b 52 04             	mov    0x4(%edx),%edx
c0002d41:	89 50 04             	mov    %edx,0x4(%eax)
c0002d44:	8b 45 0c             	mov    0xc(%ebp),%eax
c0002d47:	8b 40 04             	mov    0x4(%eax),%eax
c0002d4a:	8b 55 0c             	mov    0xc(%ebp),%edx
c0002d4d:	8b 12                	mov    (%edx),%edx
c0002d4f:	89 10                	mov    %edx,(%eax)
c0002d51:	8b 45 08             	mov    0x8(%ebp),%eax
c0002d54:	8b 40 10             	mov    0x10(%eax),%eax
c0002d57:	8d 50 ff             	lea    -0x1(%eax),%edx
c0002d5a:	8b 45 08             	mov    0x8(%ebp),%eax
c0002d5d:	89 50 10             	mov    %edx,0x10(%eax)
c0002d60:	83 ec 0c             	sub    $0xc,%esp
c0002d63:	ff 75 f4             	pushl  -0xc(%ebp)
c0002d66:	e8 6f f7 ff ff       	call   c00024da <_Z15intr_set_status11intr_status>
c0002d6b:	83 c4 10             	add    $0x10,%esp
c0002d6e:	90                   	nop
c0002d6f:	c9                   	leave  
c0002d70:	c3                   	ret    
c0002d71:	90                   	nop

c0002d72 <_ZN4list8pop_backEv>:
c0002d72:	55                   	push   %ebp
c0002d73:	89 e5                	mov    %esp,%ebp
c0002d75:	83 ec 18             	sub    $0x18,%esp
c0002d78:	8b 45 08             	mov    0x8(%ebp),%eax
c0002d7b:	8b 40 08             	mov    0x8(%eax),%eax
c0002d7e:	89 45 f4             	mov    %eax,-0xc(%ebp)
c0002d81:	83 ec 08             	sub    $0x8,%esp
c0002d84:	ff 75 f4             	pushl  -0xc(%ebp)
c0002d87:	ff 75 08             	pushl  0x8(%ebp)
c0002d8a:	e8 99 ff ff ff       	call   c0002d28 <_ZN4list6removeEP9list_elem>
c0002d8f:	83 c4 10             	add    $0x10,%esp
c0002d92:	8b 45 f4             	mov    -0xc(%ebp),%eax
c0002d95:	c9                   	leave  
c0002d96:	c3                   	ret    
c0002d97:	90                   	nop

c0002d98 <_ZN4list4findEP9list_elem>:
c0002d98:	55                   	push   %ebp
c0002d99:	89 e5                	mov    %esp,%ebp
c0002d9b:	83 ec 10             	sub    $0x10,%esp
c0002d9e:	8b 45 08             	mov    0x8(%ebp),%eax
c0002da1:	8b 40 04             	mov    0x4(%eax),%eax
c0002da4:	89 45 fc             	mov    %eax,-0x4(%ebp)
c0002da7:	8b 45 08             	mov    0x8(%ebp),%eax
c0002daa:	83 c0 08             	add    $0x8,%eax
c0002dad:	3b 45 fc             	cmp    -0x4(%ebp),%eax
c0002db0:	74 1a                	je     c0002dcc <_ZN4list4findEP9list_elem+0x34>
c0002db2:	8b 45 fc             	mov    -0x4(%ebp),%eax
c0002db5:	3b 45 0c             	cmp    0xc(%ebp),%eax
c0002db8:	75 07                	jne    c0002dc1 <_ZN4list4findEP9list_elem+0x29>
c0002dba:	b8 01 00 00 00       	mov    $0x1,%eax
c0002dbf:	eb 10                	jmp    c0002dd1 <_ZN4list4findEP9list_elem+0x39>
c0002dc1:	8b 45 fc             	mov    -0x4(%ebp),%eax
c0002dc4:	8b 40 04             	mov    0x4(%eax),%eax
c0002dc7:	89 45 fc             	mov    %eax,-0x4(%ebp)
c0002dca:	eb db                	jmp    c0002da7 <_ZN4list4findEP9list_elem+0xf>
c0002dcc:	b8 00 00 00 00       	mov    $0x0,%eax
c0002dd1:	c9                   	leave  
c0002dd2:	c3                   	ret    
c0002dd3:	90                   	nop

c0002dd4 <_ZN4list14list_traversalEPFiP9list_elemiEi>:
c0002dd4:	55                   	push   %ebp
c0002dd5:	89 e5                	mov    %esp,%ebp
c0002dd7:	83 ec 18             	sub    $0x18,%esp
c0002dda:	8b 45 08             	mov    0x8(%ebp),%eax
c0002ddd:	8b 40 04             	mov    0x4(%eax),%eax
c0002de0:	89 45 f4             	mov    %eax,-0xc(%ebp)
c0002de3:	83 ec 0c             	sub    $0xc,%esp
c0002de6:	ff 75 08             	pushl  0x8(%ebp)
c0002de9:	e8 50 00 00 00       	call   c0002e3e <_ZN4list8is_emptyEv>
c0002dee:	83 c4 10             	add    $0x10,%esp
c0002df1:	85 c0                	test   %eax,%eax
c0002df3:	0f 95 c0             	setne  %al
c0002df6:	84 c0                	test   %al,%al
c0002df8:	74 07                	je     c0002e01 <_ZN4list14list_traversalEPFiP9list_elemiEi+0x2d>
c0002dfa:	b8 00 00 00 00       	mov    $0x0,%eax
c0002dff:	eb 3a                	jmp    c0002e3b <_ZN4list14list_traversalEPFiP9list_elemiEi+0x67>
c0002e01:	8b 45 08             	mov    0x8(%ebp),%eax
c0002e04:	83 c0 08             	add    $0x8,%eax
c0002e07:	3b 45 f4             	cmp    -0xc(%ebp),%eax
c0002e0a:	74 2a                	je     c0002e36 <_ZN4list14list_traversalEPFiP9list_elemiEi+0x62>
c0002e0c:	83 ec 08             	sub    $0x8,%esp
c0002e0f:	ff 75 10             	pushl  0x10(%ebp)
c0002e12:	ff 75 f4             	pushl  -0xc(%ebp)
c0002e15:	8b 45 0c             	mov    0xc(%ebp),%eax
c0002e18:	ff d0                	call   *%eax
c0002e1a:	83 c4 10             	add    $0x10,%esp
c0002e1d:	85 c0                	test   %eax,%eax
c0002e1f:	0f 95 c0             	setne  %al
c0002e22:	84 c0                	test   %al,%al
c0002e24:	74 05                	je     c0002e2b <_ZN4list14list_traversalEPFiP9list_elemiEi+0x57>
c0002e26:	8b 45 f4             	mov    -0xc(%ebp),%eax
c0002e29:	eb 10                	jmp    c0002e3b <_ZN4list14list_traversalEPFiP9list_elemiEi+0x67>
c0002e2b:	8b 45 f4             	mov    -0xc(%ebp),%eax
c0002e2e:	8b 40 04             	mov    0x4(%eax),%eax
c0002e31:	89 45 f4             	mov    %eax,-0xc(%ebp)
c0002e34:	eb cb                	jmp    c0002e01 <_ZN4list14list_traversalEPFiP9list_elemiEi+0x2d>
c0002e36:	b8 00 00 00 00       	mov    $0x0,%eax
c0002e3b:	c9                   	leave  
c0002e3c:	c3                   	ret    
c0002e3d:	90                   	nop

c0002e3e <_ZN4list8is_emptyEv>:
c0002e3e:	55                   	push   %ebp
c0002e3f:	89 e5                	mov    %esp,%ebp
c0002e41:	8b 45 08             	mov    0x8(%ebp),%eax
c0002e44:	8b 40 10             	mov    0x10(%eax),%eax
c0002e47:	85 c0                	test   %eax,%eax
c0002e49:	0f 94 c0             	sete   %al
c0002e4c:	0f b6 c0             	movzbl %al,%eax
c0002e4f:	5d                   	pop    %ebp
c0002e50:	c3                   	ret    
c0002e51:	90                   	nop

c0002e52 <_ZN6bitmapC1Ev>:
c0002e52:	55                   	push   %ebp
c0002e53:	89 e5                	mov    %esp,%ebp
c0002e55:	8b 45 08             	mov    0x8(%ebp),%eax
c0002e58:	c7 00 00 00 00 00    	movl   $0x0,(%eax)
c0002e5e:	8b 45 08             	mov    0x8(%ebp),%eax
c0002e61:	c7 40 04 00 00 00 00 	movl   $0x0,0x4(%eax)
c0002e68:	90                   	nop
c0002e69:	5d                   	pop    %ebp
c0002e6a:	c3                   	ret    
c0002e6b:	90                   	nop

c0002e6c <_ZN6bitmap4initEv>:
c0002e6c:	55                   	push   %ebp
c0002e6d:	89 e5                	mov    %esp,%ebp
c0002e6f:	83 ec 08             	sub    $0x8,%esp
c0002e72:	8b 45 08             	mov    0x8(%ebp),%eax
c0002e75:	8b 10                	mov    (%eax),%edx
c0002e77:	8b 45 08             	mov    0x8(%ebp),%eax
c0002e7a:	8b 40 04             	mov    0x4(%eax),%eax
c0002e7d:	83 ec 04             	sub    $0x4,%esp
c0002e80:	52                   	push   %edx
c0002e81:	6a 00                	push   $0x0
c0002e83:	50                   	push   %eax
c0002e84:	e8 25 ef ff ff       	call   c0001dae <_Z6memsetPvhj>
c0002e89:	83 c4 10             	add    $0x10,%esp
c0002e8c:	90                   	nop
c0002e8d:	c9                   	leave  
c0002e8e:	c3                   	ret    
c0002e8f:	90                   	nop

c0002e90 <_ZN6bitmap11bitmap_testEj>:
c0002e90:	55                   	push   %ebp
c0002e91:	89 e5                	mov    %esp,%ebp
c0002e93:	53                   	push   %ebx
c0002e94:	83 ec 10             	sub    $0x10,%esp
c0002e97:	8b 45 0c             	mov    0xc(%ebp),%eax
c0002e9a:	c1 e8 03             	shr    $0x3,%eax
c0002e9d:	89 45 f8             	mov    %eax,-0x8(%ebp)
c0002ea0:	8b 45 0c             	mov    0xc(%ebp),%eax
c0002ea3:	83 e0 07             	and    $0x7,%eax
c0002ea6:	89 45 f4             	mov    %eax,-0xc(%ebp)
c0002ea9:	8b 45 08             	mov    0x8(%ebp),%eax
c0002eac:	8b 50 04             	mov    0x4(%eax),%edx
c0002eaf:	8b 45 f8             	mov    -0x8(%ebp),%eax
c0002eb2:	01 d0                	add    %edx,%eax
c0002eb4:	0f b6 00             	movzbl (%eax),%eax
c0002eb7:	0f b6 d0             	movzbl %al,%edx
c0002eba:	8b 45 f4             	mov    -0xc(%ebp),%eax
c0002ebd:	bb 01 00 00 00       	mov    $0x1,%ebx
c0002ec2:	89 c1                	mov    %eax,%ecx
c0002ec4:	d3 e3                	shl    %cl,%ebx
c0002ec6:	89 d8                	mov    %ebx,%eax
c0002ec8:	21 d0                	and    %edx,%eax
c0002eca:	83 c4 10             	add    $0x10,%esp
c0002ecd:	5b                   	pop    %ebx
c0002ece:	5d                   	pop    %ebp
c0002ecf:	c3                   	ret    

c0002ed0 <_ZN6bitmap12bitmap_allocEj>:
c0002ed0:	55                   	push   %ebp
c0002ed1:	89 e5                	mov    %esp,%ebp
c0002ed3:	83 ec 20             	sub    $0x20,%esp
c0002ed6:	c7 45 fc 00 00 00 00 	movl   $0x0,-0x4(%ebp)
c0002edd:	8b 45 08             	mov    0x8(%ebp),%eax
c0002ee0:	8b 50 04             	mov    0x4(%eax),%edx
c0002ee3:	8b 45 fc             	mov    -0x4(%ebp),%eax
c0002ee6:	01 d0                	add    %edx,%eax
c0002ee8:	0f b6 00             	movzbl (%eax),%eax
c0002eeb:	3c ff                	cmp    $0xff,%al
c0002eed:	75 10                	jne    c0002eff <_ZN6bitmap12bitmap_allocEj+0x2f>
c0002eef:	8b 45 08             	mov    0x8(%ebp),%eax
c0002ef2:	8b 00                	mov    (%eax),%eax
c0002ef4:	3b 45 fc             	cmp    -0x4(%ebp),%eax
c0002ef7:	76 06                	jbe    c0002eff <_ZN6bitmap12bitmap_allocEj+0x2f>
c0002ef9:	83 45 fc 01          	addl   $0x1,-0x4(%ebp)
c0002efd:	eb de                	jmp    c0002edd <_ZN6bitmap12bitmap_allocEj+0xd>
c0002eff:	c7 45 f8 00 00 00 00 	movl   $0x0,-0x8(%ebp)
c0002f06:	8b 45 f8             	mov    -0x8(%ebp),%eax
c0002f09:	ba 01 00 00 00       	mov    $0x1,%edx
c0002f0e:	89 c1                	mov    %eax,%ecx
c0002f10:	d3 e2                	shl    %cl,%edx
c0002f12:	89 d0                	mov    %edx,%eax
c0002f14:	0f b6 d0             	movzbl %al,%edx
c0002f17:	8b 45 08             	mov    0x8(%ebp),%eax
c0002f1a:	8b 48 04             	mov    0x4(%eax),%ecx
c0002f1d:	8b 45 fc             	mov    -0x4(%ebp),%eax
c0002f20:	01 c8                	add    %ecx,%eax
c0002f22:	0f b6 00             	movzbl (%eax),%eax
c0002f25:	0f b6 c0             	movzbl %al,%eax
c0002f28:	21 d0                	and    %edx,%eax
c0002f2a:	85 c0                	test   %eax,%eax
c0002f2c:	74 06                	je     c0002f34 <_ZN6bitmap12bitmap_allocEj+0x64>
c0002f2e:	83 45 f8 01          	addl   $0x1,-0x8(%ebp)
c0002f32:	eb d2                	jmp    c0002f06 <_ZN6bitmap12bitmap_allocEj+0x36>
c0002f34:	8b 45 fc             	mov    -0x4(%ebp),%eax
c0002f37:	8d 14 c5 00 00 00 00 	lea    0x0(,%eax,8),%edx
c0002f3e:	8b 45 f8             	mov    -0x8(%ebp),%eax
c0002f41:	01 d0                	add    %edx,%eax
c0002f43:	89 45 f4             	mov    %eax,-0xc(%ebp)
c0002f46:	83 7d 0c 01          	cmpl   $0x1,0xc(%ebp)
c0002f4a:	75 08                	jne    c0002f54 <_ZN6bitmap12bitmap_allocEj+0x84>
c0002f4c:	8b 45 f4             	mov    -0xc(%ebp),%eax
c0002f4f:	e9 82 00 00 00       	jmp    c0002fd6 <_ZN6bitmap12bitmap_allocEj+0x106>
c0002f54:	8b 45 08             	mov    0x8(%ebp),%eax
c0002f57:	8b 00                	mov    (%eax),%eax
c0002f59:	8d 14 c5 00 00 00 00 	lea    0x0(,%eax,8),%edx
c0002f60:	8b 45 f4             	mov    -0xc(%ebp),%eax
c0002f63:	29 c2                	sub    %eax,%edx
c0002f65:	89 d0                	mov    %edx,%eax
c0002f67:	89 45 f0             	mov    %eax,-0x10(%ebp)
c0002f6a:	8b 45 f4             	mov    -0xc(%ebp),%eax
c0002f6d:	83 c0 01             	add    $0x1,%eax
c0002f70:	89 45 ec             	mov    %eax,-0x14(%ebp)
c0002f73:	c7 45 e8 01 00 00 00 	movl   $0x1,-0x18(%ebp)
c0002f7a:	c7 45 f4 ff ff ff ff 	movl   $0xffffffff,-0xc(%ebp)
c0002f81:	8b 45 f0             	mov    -0x10(%ebp),%eax
c0002f84:	8d 50 ff             	lea    -0x1(%eax),%edx
c0002f87:	89 55 f0             	mov    %edx,-0x10(%ebp)
c0002f8a:	85 c0                	test   %eax,%eax
c0002f8c:	0f 95 c0             	setne  %al
c0002f8f:	84 c0                	test   %al,%al
c0002f91:	74 40                	je     c0002fd3 <_ZN6bitmap12bitmap_allocEj+0x103>
c0002f93:	ff 75 ec             	pushl  -0x14(%ebp)
c0002f96:	ff 75 08             	pushl  0x8(%ebp)
c0002f99:	e8 f2 fe ff ff       	call   c0002e90 <_ZN6bitmap11bitmap_testEj>
c0002f9e:	83 c4 08             	add    $0x8,%esp
c0002fa1:	85 c0                	test   %eax,%eax
c0002fa3:	0f 94 c0             	sete   %al
c0002fa6:	84 c0                	test   %al,%al
c0002fa8:	74 06                	je     c0002fb0 <_ZN6bitmap12bitmap_allocEj+0xe0>
c0002faa:	83 45 e8 01          	addl   $0x1,-0x18(%ebp)
c0002fae:	eb 07                	jmp    c0002fb7 <_ZN6bitmap12bitmap_allocEj+0xe7>
c0002fb0:	c7 45 e8 00 00 00 00 	movl   $0x0,-0x18(%ebp)
c0002fb7:	8b 45 e8             	mov    -0x18(%ebp),%eax
c0002fba:	3b 45 0c             	cmp    0xc(%ebp),%eax
c0002fbd:	75 0e                	jne    c0002fcd <_ZN6bitmap12bitmap_allocEj+0xfd>
c0002fbf:	8b 45 ec             	mov    -0x14(%ebp),%eax
c0002fc2:	2b 45 0c             	sub    0xc(%ebp),%eax
c0002fc5:	83 c0 01             	add    $0x1,%eax
c0002fc8:	89 45 f4             	mov    %eax,-0xc(%ebp)
c0002fcb:	eb 06                	jmp    c0002fd3 <_ZN6bitmap12bitmap_allocEj+0x103>
c0002fcd:	83 45 ec 01          	addl   $0x1,-0x14(%ebp)
c0002fd1:	eb ae                	jmp    c0002f81 <_ZN6bitmap12bitmap_allocEj+0xb1>
c0002fd3:	8b 45 f4             	mov    -0xc(%ebp),%eax
c0002fd6:	c9                   	leave  
c0002fd7:	c3                   	ret    

c0002fd8 <_ZN6bitmap10bitmap_setEjh>:
c0002fd8:	55                   	push   %ebp
c0002fd9:	89 e5                	mov    %esp,%ebp
c0002fdb:	56                   	push   %esi
c0002fdc:	53                   	push   %ebx
c0002fdd:	83 ec 14             	sub    $0x14,%esp
c0002fe0:	8b 45 10             	mov    0x10(%ebp),%eax
c0002fe3:	88 45 e4             	mov    %al,-0x1c(%ebp)
c0002fe6:	8b 45 0c             	mov    0xc(%ebp),%eax
c0002fe9:	c1 e8 03             	shr    $0x3,%eax
c0002fec:	89 45 f4             	mov    %eax,-0xc(%ebp)
c0002fef:	8b 45 0c             	mov    0xc(%ebp),%eax
c0002ff2:	83 e0 07             	and    $0x7,%eax
c0002ff5:	89 45 f0             	mov    %eax,-0x10(%ebp)
c0002ff8:	80 7d e4 00          	cmpb   $0x0,-0x1c(%ebp)
c0002ffc:	74 2f                	je     c000302d <_ZN6bitmap10bitmap_setEjh+0x55>
c0002ffe:	8b 45 08             	mov    0x8(%ebp),%eax
c0003001:	8b 50 04             	mov    0x4(%eax),%edx
c0003004:	8b 45 f4             	mov    -0xc(%ebp),%eax
c0003007:	01 c2                	add    %eax,%edx
c0003009:	8b 45 08             	mov    0x8(%ebp),%eax
c000300c:	8b 48 04             	mov    0x4(%eax),%ecx
c000300f:	8b 45 f4             	mov    -0xc(%ebp),%eax
c0003012:	01 c8                	add    %ecx,%eax
c0003014:	0f b6 00             	movzbl (%eax),%eax
c0003017:	89 c6                	mov    %eax,%esi
c0003019:	8b 45 f0             	mov    -0x10(%ebp),%eax
c000301c:	bb 01 00 00 00       	mov    $0x1,%ebx
c0003021:	89 c1                	mov    %eax,%ecx
c0003023:	d3 e3                	shl    %cl,%ebx
c0003025:	89 d8                	mov    %ebx,%eax
c0003027:	09 f0                	or     %esi,%eax
c0003029:	88 02                	mov    %al,(%edx)
c000302b:	eb 2f                	jmp    c000305c <_ZN6bitmap10bitmap_setEjh+0x84>
c000302d:	8b 45 08             	mov    0x8(%ebp),%eax
c0003030:	8b 50 04             	mov    0x4(%eax),%edx
c0003033:	8b 45 f4             	mov    -0xc(%ebp),%eax
c0003036:	01 c2                	add    %eax,%edx
c0003038:	8b 45 08             	mov    0x8(%ebp),%eax
c000303b:	8b 48 04             	mov    0x4(%eax),%ecx
c000303e:	8b 45 f4             	mov    -0xc(%ebp),%eax
c0003041:	01 c8                	add    %ecx,%eax
c0003043:	0f b6 00             	movzbl (%eax),%eax
c0003046:	89 c3                	mov    %eax,%ebx
c0003048:	8b 45 f0             	mov    -0x10(%ebp),%eax
c000304b:	be 01 00 00 00       	mov    $0x1,%esi
c0003050:	89 c1                	mov    %eax,%ecx
c0003052:	d3 e6                	shl    %cl,%esi
c0003054:	89 f0                	mov    %esi,%eax
c0003056:	f7 d0                	not    %eax
c0003058:	21 d8                	and    %ebx,%eax
c000305a:	88 02                	mov    %al,(%edx)
c000305c:	90                   	nop
c000305d:	83 c4 14             	add    $0x14,%esp
c0003060:	5b                   	pop    %ebx
c0003061:	5e                   	pop    %esi
c0003062:	5d                   	pop    %ebp
c0003063:	c3                   	ret    

c0003064 <_ZN11task_struct12thread_blockE11task_status>:
c0003064:	55                   	push   %ebp
c0003065:	89 e5                	mov    %esp,%ebp
c0003067:	83 ec 18             	sub    $0x18,%esp
c000306a:	e8 3d f4 ff ff       	call   c00024ac <_Z12intr_disablev>
c000306f:	89 45 f4             	mov    %eax,-0xc(%ebp)
c0003072:	8b 45 08             	mov    0x8(%ebp),%eax
c0003075:	8b 55 0c             	mov    0xc(%ebp),%edx
c0003078:	89 50 08             	mov    %edx,0x8(%eax)
c000307b:	e8 99 02 00 00       	call   c0003319 <_Z8schedulev>
c0003080:	83 ec 0c             	sub    $0xc,%esp
c0003083:	ff 75 f4             	pushl  -0xc(%ebp)
c0003086:	e8 4f f4 ff ff       	call   c00024da <_Z15intr_set_status11intr_status>
c000308b:	83 c4 10             	add    $0x10,%esp
c000308e:	90                   	nop
c000308f:	c9                   	leave  
c0003090:	c3                   	ret    
c0003091:	90                   	nop

c0003092 <_ZN11task_struct14thread_unblockEv>:
c0003092:	55                   	push   %ebp
c0003093:	89 e5                	mov    %esp,%ebp
c0003095:	83 ec 18             	sub    $0x18,%esp
c0003098:	e8 0f f4 ff ff       	call   c00024ac <_Z12intr_disablev>
c000309d:	89 45 f4             	mov    %eax,-0xc(%ebp)
c00030a0:	8b 45 08             	mov    0x8(%ebp),%eax
c00030a3:	8b 40 08             	mov    0x8(%eax),%eax
c00030a6:	83 f8 01             	cmp    $0x1,%eax
c00030a9:	74 21                	je     c00030cc <_ZN11task_struct14thread_unblockEv+0x3a>
c00030ab:	8b 45 08             	mov    0x8(%ebp),%eax
c00030ae:	83 c0 24             	add    $0x24,%eax
c00030b1:	83 ec 08             	sub    $0x8,%esp
c00030b4:	50                   	push   %eax
c00030b5:	68 e4 79 00 c0       	push   $0xc00079e4
c00030ba:	e8 47 fc ff ff       	call   c0002d06 <_ZN4list9push_backEP9list_elem>
c00030bf:	83 c4 10             	add    $0x10,%esp
c00030c2:	8b 45 08             	mov    0x8(%ebp),%eax
c00030c5:	c7 40 08 01 00 00 00 	movl   $0x1,0x8(%eax)
c00030cc:	83 ec 0c             	sub    $0xc,%esp
c00030cf:	ff 75 f4             	pushl  -0xc(%ebp)
c00030d2:	e8 03 f4 ff ff       	call   c00024da <_Z15intr_set_status11intr_status>
c00030d7:	83 c4 10             	add    $0x10,%esp
c00030da:	90                   	nop
c00030db:	c9                   	leave  
c00030dc:	c3                   	ret    

c00030dd <_ZL12allocate_pidv>:
c00030dd:	55                   	push   %ebp
c00030de:	89 e5                	mov    %esp,%ebp
c00030e0:	83 ec 08             	sub    $0x8,%esp
c00030e3:	83 ec 0c             	sub    $0xc,%esp
c00030e6:	68 20 7a 00 c0       	push   $0xc0007a20
c00030eb:	e8 9a 14 00 00       	call   c000458a <_ZN4lock12lock_acquireEv>
c00030f0:	83 c4 10             	add    $0x10,%esp
c00030f3:	0f b7 05 44 7a 00 c0 	movzwl 0xc0007a44,%eax
c00030fa:	83 c0 01             	add    $0x1,%eax
c00030fd:	66 a3 44 7a 00 c0    	mov    %ax,0xc0007a44
c0003103:	83 ec 0c             	sub    $0xc,%esp
c0003106:	68 20 7a 00 c0       	push   $0xc0007a20
c000310b:	e8 d4 14 00 00       	call   c00045e4 <_ZN4lock12lock_releaseEv>
c0003110:	83 c4 10             	add    $0x10,%esp
c0003113:	0f b7 05 44 7a 00 c0 	movzwl 0xc0007a44,%eax
c000311a:	c9                   	leave  
c000311b:	c3                   	ret    

c000311c <_Z14running_threadv>:
c000311c:	55                   	push   %ebp
c000311d:	89 e5                	mov    %esp,%ebp
c000311f:	83 ec 10             	sub    $0x10,%esp
c0003122:	89 e0                	mov    %esp,%eax
c0003124:	89 45 fc             	mov    %eax,-0x4(%ebp)
c0003127:	8b 45 fc             	mov    -0x4(%ebp),%eax
c000312a:	25 00 f0 ff ff       	and    $0xfffff000,%eax
c000312f:	c9                   	leave  
c0003130:	c3                   	ret    

c0003131 <_ZL13kernel_threadPFvPvES_>:
c0003131:	55                   	push   %ebp
c0003132:	89 e5                	mov    %esp,%ebp
c0003134:	83 ec 08             	sub    $0x8,%esp
c0003137:	e8 42 f3 ff ff       	call   c000247e <_Z11intr_enablev>
c000313c:	83 ec 0c             	sub    $0xc,%esp
c000313f:	ff 75 0c             	pushl  0xc(%ebp)
c0003142:	8b 45 08             	mov    0x8(%ebp),%eax
c0003145:	ff d0                	call   *%eax
c0003147:	83 c4 10             	add    $0x10,%esp
c000314a:	90                   	nop
c000314b:	c9                   	leave  
c000314c:	c3                   	ret    
c000314d:	90                   	nop

c000314e <_ZN11task_struct4initEPciPFvPvES1_>:
c000314e:	55                   	push   %ebp
c000314f:	89 e5                	mov    %esp,%ebp
c0003151:	83 ec 18             	sub    $0x18,%esp
c0003154:	83 ec 04             	sub    $0x4,%esp
c0003157:	68 30 01 00 00       	push   $0x130
c000315c:	6a 00                	push   $0x0
c000315e:	ff 75 08             	pushl  0x8(%ebp)
c0003161:	e8 48 ec ff ff       	call   c0001dae <_Z6memsetPvhj>
c0003166:	83 c4 10             	add    $0x10,%esp
c0003169:	e8 6f ff ff ff       	call   c00030dd <_ZL12allocate_pidv>
c000316e:	89 c2                	mov    %eax,%edx
c0003170:	8b 45 08             	mov    0x8(%ebp),%eax
c0003173:	66 89 50 04          	mov    %dx,0x4(%eax)
c0003177:	8b 45 08             	mov    0x8(%ebp),%eax
c000317a:	83 c0 0c             	add    $0xc,%eax
c000317d:	83 ec 08             	sub    $0x8,%esp
c0003180:	ff 75 0c             	pushl  0xc(%ebp)
c0003183:	50                   	push   %eax
c0003184:	e8 9c ec ff ff       	call   c0001e25 <_Z6strcpyPcPKc>
c0003189:	83 c4 10             	add    $0x10,%esp
c000318c:	a1 e0 79 00 c0       	mov    0xc00079e0,%eax
c0003191:	39 45 08             	cmp    %eax,0x8(%ebp)
c0003194:	75 0c                	jne    c00031a2 <_ZN11task_struct4initEPciPFvPvES1_+0x54>
c0003196:	8b 45 08             	mov    0x8(%ebp),%eax
c0003199:	c7 40 08 00 00 00 00 	movl   $0x0,0x8(%eax)
c00031a0:	eb 0a                	jmp    c00031ac <_ZN11task_struct4initEPciPFvPvES1_+0x5e>
c00031a2:	8b 45 08             	mov    0x8(%ebp),%eax
c00031a5:	c7 40 08 01 00 00 00 	movl   $0x1,0x8(%eax)
c00031ac:	8b 45 08             	mov    0x8(%ebp),%eax
c00031af:	05 00 10 00 00       	add    $0x1000,%eax
c00031b4:	89 c2                	mov    %eax,%edx
c00031b6:	8b 45 08             	mov    0x8(%ebp),%eax
c00031b9:	89 10                	mov    %edx,(%eax)
c00031bb:	8b 45 10             	mov    0x10(%ebp),%eax
c00031be:	89 c2                	mov    %eax,%edx
c00031c0:	8b 45 08             	mov    0x8(%ebp),%eax
c00031c3:	88 50 1c             	mov    %dl,0x1c(%eax)
c00031c6:	8b 45 10             	mov    0x10(%ebp),%eax
c00031c9:	89 c2                	mov    %eax,%edx
c00031cb:	8b 45 08             	mov    0x8(%ebp),%eax
c00031ce:	88 50 1d             	mov    %dl,0x1d(%eax)
c00031d1:	8b 45 08             	mov    0x8(%ebp),%eax
c00031d4:	c7 40 20 00 00 00 00 	movl   $0x0,0x20(%eax)
c00031db:	8b 45 08             	mov    0x8(%ebp),%eax
c00031de:	c7 40 34 00 00 00 00 	movl   $0x0,0x34(%eax)
c00031e5:	8b 45 08             	mov    0x8(%ebp),%eax
c00031e8:	c7 80 2c 01 00 00 16 	movl   $0x19870916,0x12c(%eax)
c00031ef:	09 87 19 
c00031f2:	8b 45 08             	mov    0x8(%ebp),%eax
c00031f5:	8b 00                	mov    (%eax),%eax
c00031f7:	ba 30 01 00 00       	mov    $0x130,%edx
c00031fc:	f7 da                	neg    %edx
c00031fe:	01 c2                	add    %eax,%edx
c0003200:	8b 45 08             	mov    0x8(%ebp),%eax
c0003203:	89 10                	mov    %edx,(%eax)
c0003205:	8b 45 08             	mov    0x8(%ebp),%eax
c0003208:	8b 00                	mov    (%eax),%eax
c000320a:	ba 80 00 00 00       	mov    $0x80,%edx
c000320f:	f7 da                	neg    %edx
c0003211:	01 c2                	add    %eax,%edx
c0003213:	8b 45 08             	mov    0x8(%ebp),%eax
c0003216:	89 10                	mov    %edx,(%eax)
c0003218:	8b 45 08             	mov    0x8(%ebp),%eax
c000321b:	8b 00                	mov    (%eax),%eax
c000321d:	89 45 f4             	mov    %eax,-0xc(%ebp)
c0003220:	8b 45 f4             	mov    -0xc(%ebp),%eax
c0003223:	c7 40 10 31 31 00 c0 	movl   $0xc0003131,0x10(%eax)
c000322a:	8b 45 f4             	mov    -0xc(%ebp),%eax
c000322d:	8b 55 14             	mov    0x14(%ebp),%edx
c0003230:	89 50 18             	mov    %edx,0x18(%eax)
c0003233:	8b 45 f4             	mov    -0xc(%ebp),%eax
c0003236:	8b 55 18             	mov    0x18(%ebp),%edx
c0003239:	89 50 1c             	mov    %edx,0x1c(%eax)
c000323c:	8b 45 f4             	mov    -0xc(%ebp),%eax
c000323f:	c7 40 08 00 00 00 00 	movl   $0x0,0x8(%eax)
c0003246:	8b 45 f4             	mov    -0xc(%ebp),%eax
c0003249:	8b 50 08             	mov    0x8(%eax),%edx
c000324c:	8b 45 f4             	mov    -0xc(%ebp),%eax
c000324f:	89 50 0c             	mov    %edx,0xc(%eax)
c0003252:	8b 45 f4             	mov    -0xc(%ebp),%eax
c0003255:	8b 50 0c             	mov    0xc(%eax),%edx
c0003258:	8b 45 f4             	mov    -0xc(%ebp),%eax
c000325b:	89 50 04             	mov    %edx,0x4(%eax)
c000325e:	8b 45 f4             	mov    -0xc(%ebp),%eax
c0003261:	8b 50 04             	mov    0x4(%eax),%edx
c0003264:	8b 45 f4             	mov    -0xc(%ebp),%eax
c0003267:	89 10                	mov    %edx,(%eax)
c0003269:	90                   	nop
c000326a:	c9                   	leave  
c000326b:	c3                   	ret    

c000326c <_Z13thread_createPciPFvPvES0_>:
c000326c:	55                   	push   %ebp
c000326d:	89 e5                	mov    %esp,%ebp
c000326f:	83 ec 18             	sub    $0x18,%esp
c0003272:	83 ec 08             	sub    $0x8,%esp
c0003275:	6a 01                	push   $0x1
c0003277:	6a 01                	push   $0x1
c0003279:	e8 36 03 00 00       	call   c00035b4 <_Z11malloc_page10pool_flagsj>
c000327e:	83 c4 10             	add    $0x10,%esp
c0003281:	89 45 f4             	mov    %eax,-0xc(%ebp)
c0003284:	83 ec 0c             	sub    $0xc,%esp
c0003287:	ff 75 14             	pushl  0x14(%ebp)
c000328a:	ff 75 10             	pushl  0x10(%ebp)
c000328d:	ff 75 0c             	pushl  0xc(%ebp)
c0003290:	ff 75 08             	pushl  0x8(%ebp)
c0003293:	ff 75 f4             	pushl  -0xc(%ebp)
c0003296:	e8 b3 fe ff ff       	call   c000314e <_ZN11task_struct4initEPciPFvPvES1_>
c000329b:	83 c4 20             	add    $0x20,%esp
c000329e:	8b 45 f4             	mov    -0xc(%ebp),%eax
c00032a1:	83 c0 24             	add    $0x24,%eax
c00032a4:	83 ec 08             	sub    $0x8,%esp
c00032a7:	50                   	push   %eax
c00032a8:	68 e4 79 00 c0       	push   $0xc00079e4
c00032ad:	e8 32 fa ff ff       	call   c0002ce4 <_ZN4list10push_frontEP9list_elem>
c00032b2:	83 c4 10             	add    $0x10,%esp
c00032b5:	8b 45 f4             	mov    -0xc(%ebp),%eax
c00032b8:	83 c0 2c             	add    $0x2c,%eax
c00032bb:	83 ec 08             	sub    $0x8,%esp
c00032be:	50                   	push   %eax
c00032bf:	68 f8 79 00 c0       	push   $0xc00079f8
c00032c4:	e8 1b fa ff ff       	call   c0002ce4 <_ZN4list10push_frontEP9list_elem>
c00032c9:	83 c4 10             	add    $0x10,%esp
c00032cc:	8b 45 f4             	mov    -0xc(%ebp),%eax
c00032cf:	c9                   	leave  
c00032d0:	c3                   	ret    

c00032d1 <_ZL16make_main_threadv>:
c00032d1:	55                   	push   %ebp
c00032d2:	89 e5                	mov    %esp,%ebp
c00032d4:	83 ec 08             	sub    $0x8,%esp
c00032d7:	e8 40 fe ff ff       	call   c000311c <_Z14running_threadv>
c00032dc:	a3 e0 79 00 c0       	mov    %eax,0xc00079e0
c00032e1:	a1 e0 79 00 c0       	mov    0xc00079e0,%eax
c00032e6:	83 ec 0c             	sub    $0xc,%esp
c00032e9:	6a 00                	push   $0x0
c00032eb:	6a 00                	push   $0x0
c00032ed:	6a 1f                	push   $0x1f
c00032ef:	68 00 57 00 c0       	push   $0xc0005700
c00032f4:	50                   	push   %eax
c00032f5:	e8 54 fe ff ff       	call   c000314e <_ZN11task_struct4initEPciPFvPvES1_>
c00032fa:	83 c4 20             	add    $0x20,%esp
c00032fd:	a1 e0 79 00 c0       	mov    0xc00079e0,%eax
c0003302:	83 c0 2c             	add    $0x2c,%eax
c0003305:	83 ec 08             	sub    $0x8,%esp
c0003308:	50                   	push   %eax
c0003309:	68 f8 79 00 c0       	push   $0xc00079f8
c000330e:	e8 d1 f9 ff ff       	call   c0002ce4 <_ZN4list10push_frontEP9list_elem>
c0003313:	83 c4 10             	add    $0x10,%esp
c0003316:	90                   	nop
c0003317:	c9                   	leave  
c0003318:	c3                   	ret    

c0003319 <_Z8schedulev>:
c0003319:	55                   	push   %ebp
c000331a:	89 e5                	mov    %esp,%ebp
c000331c:	83 ec 18             	sub    $0x18,%esp
c000331f:	e8 f8 fd ff ff       	call   c000311c <_Z14running_threadv>
c0003324:	89 45 f4             	mov    %eax,-0xc(%ebp)
c0003327:	8b 45 f4             	mov    -0xc(%ebp),%eax
c000332a:	8b 40 08             	mov    0x8(%eax),%eax
c000332d:	85 c0                	test   %eax,%eax
c000332f:	75 2e                	jne    c000335f <_Z8schedulev+0x46>
c0003331:	8b 45 f4             	mov    -0xc(%ebp),%eax
c0003334:	83 c0 24             	add    $0x24,%eax
c0003337:	83 ec 08             	sub    $0x8,%esp
c000333a:	50                   	push   %eax
c000333b:	68 e4 79 00 c0       	push   $0xc00079e4
c0003340:	e8 9f f9 ff ff       	call   c0002ce4 <_ZN4list10push_frontEP9list_elem>
c0003345:	83 c4 10             	add    $0x10,%esp
c0003348:	8b 45 f4             	mov    -0xc(%ebp),%eax
c000334b:	0f b6 50 1c          	movzbl 0x1c(%eax),%edx
c000334f:	8b 45 f4             	mov    -0xc(%ebp),%eax
c0003352:	88 50 1d             	mov    %dl,0x1d(%eax)
c0003355:	8b 45 f4             	mov    -0xc(%ebp),%eax
c0003358:	c7 40 08 01 00 00 00 	movl   $0x1,0x8(%eax)
c000335f:	c7 05 40 7a 00 c0 00 	movl   $0x0,0xc0007a40
c0003366:	00 00 00 
c0003369:	83 ec 0c             	sub    $0xc,%esp
c000336c:	68 e4 79 00 c0       	push   $0xc00079e4
c0003371:	e8 fc f9 ff ff       	call   c0002d72 <_ZN4list8pop_backEv>
c0003376:	83 c4 10             	add    $0x10,%esp
c0003379:	a3 40 7a 00 c0       	mov    %eax,0xc0007a40
c000337e:	a1 40 7a 00 c0       	mov    0xc0007a40,%eax
c0003383:	83 e8 24             	sub    $0x24,%eax
c0003386:	89 45 f0             	mov    %eax,-0x10(%ebp)
c0003389:	8b 45 f0             	mov    -0x10(%ebp),%eax
c000338c:	c7 40 08 00 00 00 00 	movl   $0x0,0x8(%eax)
c0003393:	83 ec 0c             	sub    $0xc,%esp
c0003396:	ff 75 f0             	pushl  -0x10(%ebp)
c0003399:	e8 bb 16 00 00       	call   c0004a59 <_Z16process_activateP11task_struct>
c000339e:	83 c4 10             	add    $0x10,%esp
c00033a1:	83 ec 08             	sub    $0x8,%esp
c00033a4:	ff 75 f0             	pushl  -0x10(%ebp)
c00033a7:	ff 75 f4             	pushl  -0xc(%ebp)
c00033aa:	e8 e1 0f 00 00       	call   c0004390 <switch_to>
c00033af:	83 c4 10             	add    $0x10,%esp
c00033b2:	90                   	nop
c00033b3:	c9                   	leave  
c00033b4:	c3                   	ret    

c00033b5 <_Z11thread_initv>:
c00033b5:	55                   	push   %ebp
c00033b6:	89 e5                	mov    %esp,%ebp
c00033b8:	83 ec 08             	sub    $0x8,%esp
c00033bb:	83 ec 0c             	sub    $0xc,%esp
c00033be:	68 05 57 00 c0       	push   $0xc0005705
c00033c3:	e8 19 e4 ff ff       	call   c00017e1 <_Z8k_printfPKcz>
c00033c8:	83 c4 10             	add    $0x10,%esp
c00033cb:	83 ec 0c             	sub    $0xc,%esp
c00033ce:	68 e4 79 00 c0       	push   $0xc00079e4
c00033d3:	e8 80 f8 ff ff       	call   c0002c58 <_ZN4list4initEv>
c00033d8:	83 c4 10             	add    $0x10,%esp
c00033db:	83 ec 0c             	sub    $0xc,%esp
c00033de:	68 f8 79 00 c0       	push   $0xc00079f8
c00033e3:	e8 70 f8 ff ff       	call   c0002c58 <_ZN4list4initEv>
c00033e8:	83 c4 10             	add    $0x10,%esp
c00033eb:	83 ec 0c             	sub    $0xc,%esp
c00033ee:	68 20 7a 00 c0       	push   $0xc0007a20
c00033f3:	e8 62 11 00 00       	call   c000455a <_ZN4lock4initEv>
c00033f8:	83 c4 10             	add    $0x10,%esp
c00033fb:	e8 d1 fe ff ff       	call   c00032d1 <_ZL16make_main_threadv>
c0003400:	83 ec 0c             	sub    $0xc,%esp
c0003403:	68 18 57 00 c0       	push   $0xc0005718
c0003408:	e8 d4 e3 ff ff       	call   c00017e1 <_Z8k_printfPKcz>
c000340d:	83 c4 10             	add    $0x10,%esp
c0003410:	90                   	nop
c0003411:	c9                   	leave  
c0003412:	c3                   	ret    
c0003413:	90                   	nop

c0003414 <_ZN4pool8addr_getEj>:
c0003414:	55                   	push   %ebp
c0003415:	89 e5                	mov    %esp,%ebp
c0003417:	83 ec 18             	sub    $0x18,%esp
c000341a:	c7 45 f0 ff ff ff ff 	movl   $0xffffffff,-0x10(%ebp)
c0003421:	c7 45 f4 00 00 00 00 	movl   $0x0,-0xc(%ebp)
c0003428:	8b 45 08             	mov    0x8(%ebp),%eax
c000342b:	83 ec 08             	sub    $0x8,%esp
c000342e:	ff 75 0c             	pushl  0xc(%ebp)
c0003431:	50                   	push   %eax
c0003432:	e8 99 fa ff ff       	call   c0002ed0 <_ZN6bitmap12bitmap_allocEj>
c0003437:	83 c4 10             	add    $0x10,%esp
c000343a:	89 45 f0             	mov    %eax,-0x10(%ebp)
c000343d:	83 7d f0 ff          	cmpl   $0xffffffff,-0x10(%ebp)
c0003441:	75 07                	jne    c000344a <_ZN4pool8addr_getEj+0x36>
c0003443:	b8 00 00 00 00       	mov    $0x0,%eax
c0003448:	eb 38                	jmp    c0003482 <_ZN4pool8addr_getEj+0x6e>
c000344a:	8b 45 f4             	mov    -0xc(%ebp),%eax
c000344d:	3b 45 0c             	cmp    0xc(%ebp),%eax
c0003450:	73 22                	jae    c0003474 <_ZN4pool8addr_getEj+0x60>
c0003452:	8b 45 f4             	mov    -0xc(%ebp),%eax
c0003455:	8d 50 01             	lea    0x1(%eax),%edx
c0003458:	89 55 f4             	mov    %edx,-0xc(%ebp)
c000345b:	8b 55 f0             	mov    -0x10(%ebp),%edx
c000345e:	01 c2                	add    %eax,%edx
c0003460:	8b 45 08             	mov    0x8(%ebp),%eax
c0003463:	83 ec 04             	sub    $0x4,%esp
c0003466:	6a 01                	push   $0x1
c0003468:	52                   	push   %edx
c0003469:	50                   	push   %eax
c000346a:	e8 69 fb ff ff       	call   c0002fd8 <_ZN6bitmap10bitmap_setEjh>
c000346f:	83 c4 10             	add    $0x10,%esp
c0003472:	eb d6                	jmp    c000344a <_ZN4pool8addr_getEj+0x36>
c0003474:	8b 45 08             	mov    0x8(%ebp),%eax
c0003477:	8b 40 08             	mov    0x8(%eax),%eax
c000347a:	8b 55 f0             	mov    -0x10(%ebp),%edx
c000347d:	c1 e2 0c             	shl    $0xc,%edx
c0003480:	01 d0                	add    %edx,%eax
c0003482:	c9                   	leave  
c0003483:	c3                   	ret    

c0003484 <_Z7pte_ptrj>:
c0003484:	55                   	push   %ebp
c0003485:	89 e5                	mov    %esp,%ebp
c0003487:	83 ec 10             	sub    $0x10,%esp
c000348a:	8b 45 08             	mov    0x8(%ebp),%eax
c000348d:	25 00 00 c0 ff       	and    $0xffc00000,%eax
c0003492:	c1 e8 0a             	shr    $0xa,%eax
c0003495:	89 c2                	mov    %eax,%edx
c0003497:	8b 45 08             	mov    0x8(%ebp),%eax
c000349a:	25 00 f0 3f 00       	and    $0x3ff000,%eax
c000349f:	c1 e8 0c             	shr    $0xc,%eax
c00034a2:	c1 e0 02             	shl    $0x2,%eax
c00034a5:	01 d0                	add    %edx,%eax
c00034a7:	2d 00 00 40 00       	sub    $0x400000,%eax
c00034ac:	89 45 fc             	mov    %eax,-0x4(%ebp)
c00034af:	8b 45 fc             	mov    -0x4(%ebp),%eax
c00034b2:	c9                   	leave  
c00034b3:	c3                   	ret    

c00034b4 <_Z7pde_ptrj>:
c00034b4:	55                   	push   %ebp
c00034b5:	89 e5                	mov    %esp,%ebp
c00034b7:	83 ec 10             	sub    $0x10,%esp
c00034ba:	8b 45 08             	mov    0x8(%ebp),%eax
c00034bd:	c1 e8 16             	shr    $0x16,%eax
c00034c0:	05 00 fc ff 3f       	add    $0x3ffffc00,%eax
c00034c5:	c1 e0 02             	shl    $0x2,%eax
c00034c8:	89 45 fc             	mov    %eax,-0x4(%ebp)
c00034cb:	8b 45 fc             	mov    -0x4(%ebp),%eax
c00034ce:	c9                   	leave  
c00034cf:	c3                   	ret    

c00034d0 <_Z14page_table_addPvS_>:
c00034d0:	55                   	push   %ebp
c00034d1:	89 e5                	mov    %esp,%ebp
c00034d3:	83 ec 28             	sub    $0x28,%esp
c00034d6:	8b 45 08             	mov    0x8(%ebp),%eax
c00034d9:	89 45 f4             	mov    %eax,-0xc(%ebp)
c00034dc:	8b 45 0c             	mov    0xc(%ebp),%eax
c00034df:	89 45 f0             	mov    %eax,-0x10(%ebp)
c00034e2:	ff 75 f4             	pushl  -0xc(%ebp)
c00034e5:	e8 ca ff ff ff       	call   c00034b4 <_Z7pde_ptrj>
c00034ea:	83 c4 04             	add    $0x4,%esp
c00034ed:	89 45 ec             	mov    %eax,-0x14(%ebp)
c00034f0:	ff 75 f4             	pushl  -0xc(%ebp)
c00034f3:	e8 8c ff ff ff       	call   c0003484 <_Z7pte_ptrj>
c00034f8:	83 c4 04             	add    $0x4,%esp
c00034fb:	89 45 e8             	mov    %eax,-0x18(%ebp)
c00034fe:	8b 45 ec             	mov    -0x14(%ebp),%eax
c0003501:	8b 00                	mov    (%eax),%eax
c0003503:	83 e0 01             	and    $0x1,%eax
c0003506:	85 c0                	test   %eax,%eax
c0003508:	74 3d                	je     c0003547 <_Z14page_table_addPvS_+0x77>
c000350a:	8b 45 e8             	mov    -0x18(%ebp),%eax
c000350d:	8b 00                	mov    (%eax),%eax
c000350f:	83 e0 01             	and    $0x1,%eax
c0003512:	85 c0                	test   %eax,%eax
c0003514:	75 12                	jne    c0003528 <_Z14page_table_addPvS_+0x58>
c0003516:	8b 45 f0             	mov    -0x10(%ebp),%eax
c0003519:	83 c8 07             	or     $0x7,%eax
c000351c:	89 c2                	mov    %eax,%edx
c000351e:	8b 45 e8             	mov    -0x18(%ebp),%eax
c0003521:	89 10                	mov    %edx,(%eax)
c0003523:	e9 89 00 00 00       	jmp    c00035b1 <_Z14page_table_addPvS_+0xe1>
c0003528:	83 ec 0c             	sub    $0xc,%esp
c000352b:	68 30 57 00 c0       	push   $0xc0005730
c0003530:	e8 ac e2 ff ff       	call   c00017e1 <_Z8k_printfPKcz>
c0003535:	83 c4 10             	add    $0x10,%esp
c0003538:	8b 45 f0             	mov    -0x10(%ebp),%eax
c000353b:	83 c8 07             	or     $0x7,%eax
c000353e:	89 c2                	mov    %eax,%edx
c0003540:	8b 45 e8             	mov    -0x18(%ebp),%eax
c0003543:	89 10                	mov    %edx,(%eax)
c0003545:	eb 6a                	jmp    c00035b1 <_Z14page_table_addPvS_+0xe1>
c0003547:	83 ec 0c             	sub    $0xc,%esp
c000354a:	68 70 7a 00 c0       	push   $0xc0007a70
c000354f:	e8 36 10 00 00       	call   c000458a <_ZN4lock12lock_acquireEv>
c0003554:	83 c4 10             	add    $0x10,%esp
c0003557:	83 ec 08             	sub    $0x8,%esp
c000355a:	6a 01                	push   $0x1
c000355c:	68 60 7a 00 c0       	push   $0xc0007a60
c0003561:	e8 ae fe ff ff       	call   c0003414 <_ZN4pool8addr_getEj>
c0003566:	83 c4 10             	add    $0x10,%esp
c0003569:	89 45 e4             	mov    %eax,-0x1c(%ebp)
c000356c:	83 ec 0c             	sub    $0xc,%esp
c000356f:	68 70 7a 00 c0       	push   $0xc0007a70
c0003574:	e8 6b 10 00 00       	call   c00045e4 <_ZN4lock12lock_releaseEv>
c0003579:	83 c4 10             	add    $0x10,%esp
c000357c:	8b 45 e4             	mov    -0x1c(%ebp),%eax
c000357f:	83 c8 07             	or     $0x7,%eax
c0003582:	89 c2                	mov    %eax,%edx
c0003584:	8b 45 ec             	mov    -0x14(%ebp),%eax
c0003587:	89 10                	mov    %edx,(%eax)
c0003589:	8b 45 e8             	mov    -0x18(%ebp),%eax
c000358c:	25 00 f0 ff ff       	and    $0xfffff000,%eax
c0003591:	83 ec 04             	sub    $0x4,%esp
c0003594:	68 00 10 00 00       	push   $0x1000
c0003599:	6a 00                	push   $0x0
c000359b:	50                   	push   %eax
c000359c:	e8 0d e8 ff ff       	call   c0001dae <_Z6memsetPvhj>
c00035a1:	83 c4 10             	add    $0x10,%esp
c00035a4:	8b 45 f0             	mov    -0x10(%ebp),%eax
c00035a7:	83 c8 07             	or     $0x7,%eax
c00035aa:	89 c2                	mov    %eax,%edx
c00035ac:	8b 45 e8             	mov    -0x18(%ebp),%eax
c00035af:	89 10                	mov    %edx,(%eax)
c00035b1:	90                   	nop
c00035b2:	c9                   	leave  
c00035b3:	c3                   	ret    

c00035b4 <_Z11malloc_page10pool_flagsj>:
c00035b4:	55                   	push   %ebp
c00035b5:	89 e5                	mov    %esp,%ebp
c00035b7:	83 ec 28             	sub    $0x28,%esp
c00035ba:	83 7d 08 01          	cmpl   $0x1,0x8(%ebp)
c00035be:	0f 85 c8 00 00 00    	jne    c000368c <_Z11malloc_page10pool_flagsj+0xd8>
c00035c4:	83 ec 0c             	sub    $0xc,%esp
c00035c7:	68 f0 7a 00 c0       	push   $0xc0007af0
c00035cc:	e8 b9 0f 00 00       	call   c000458a <_ZN4lock12lock_acquireEv>
c00035d1:	83 c4 10             	add    $0x10,%esp
c00035d4:	83 ec 08             	sub    $0x8,%esp
c00035d7:	ff 75 0c             	pushl  0xc(%ebp)
c00035da:	68 e0 7a 00 c0       	push   $0xc0007ae0
c00035df:	e8 30 fe ff ff       	call   c0003414 <_ZN4pool8addr_getEj>
c00035e4:	83 c4 10             	add    $0x10,%esp
c00035e7:	89 45 f4             	mov    %eax,-0xc(%ebp)
c00035ea:	83 ec 0c             	sub    $0xc,%esp
c00035ed:	68 f0 7a 00 c0       	push   $0xc0007af0
c00035f2:	e8 ed 0f 00 00       	call   c00045e4 <_ZN4lock12lock_releaseEv>
c00035f7:	83 c4 10             	add    $0x10,%esp
c00035fa:	83 7d f4 00          	cmpl   $0x0,-0xc(%ebp)
c00035fe:	75 0a                	jne    c000360a <_Z11malloc_page10pool_flagsj+0x56>
c0003600:	b8 00 00 00 00       	mov    $0x0,%eax
c0003605:	e9 6b 01 00 00       	jmp    c0003775 <_Z11malloc_page10pool_flagsj+0x1c1>
c000360a:	8b 45 f4             	mov    -0xc(%ebp),%eax
c000360d:	89 45 f0             	mov    %eax,-0x10(%ebp)
c0003610:	8b 45 0c             	mov    0xc(%ebp),%eax
c0003613:	89 45 ec             	mov    %eax,-0x14(%ebp)
c0003616:	8b 45 ec             	mov    -0x14(%ebp),%eax
c0003619:	8d 50 ff             	lea    -0x1(%eax),%edx
c000361c:	89 55 ec             	mov    %edx,-0x14(%ebp)
c000361f:	85 c0                	test   %eax,%eax
c0003621:	0f 95 c0             	setne  %al
c0003624:	84 c0                	test   %al,%al
c0003626:	0f 84 2f 01 00 00    	je     c000375b <_Z11malloc_page10pool_flagsj+0x1a7>
c000362c:	83 ec 0c             	sub    $0xc,%esp
c000362f:	68 70 7a 00 c0       	push   $0xc0007a70
c0003634:	e8 51 0f 00 00       	call   c000458a <_ZN4lock12lock_acquireEv>
c0003639:	83 c4 10             	add    $0x10,%esp
c000363c:	83 ec 08             	sub    $0x8,%esp
c000363f:	6a 01                	push   $0x1
c0003641:	68 60 7a 00 c0       	push   $0xc0007a60
c0003646:	e8 c9 fd ff ff       	call   c0003414 <_ZN4pool8addr_getEj>
c000364b:	83 c4 10             	add    $0x10,%esp
c000364e:	89 45 e0             	mov    %eax,-0x20(%ebp)
c0003651:	83 ec 0c             	sub    $0xc,%esp
c0003654:	68 70 7a 00 c0       	push   $0xc0007a70
c0003659:	e8 86 0f 00 00       	call   c00045e4 <_ZN4lock12lock_releaseEv>
c000365e:	83 c4 10             	add    $0x10,%esp
c0003661:	83 7d e0 00          	cmpl   $0x0,-0x20(%ebp)
c0003665:	75 0a                	jne    c0003671 <_Z11malloc_page10pool_flagsj+0xbd>
c0003667:	b8 00 00 00 00       	mov    $0x0,%eax
c000366c:	e9 04 01 00 00       	jmp    c0003775 <_Z11malloc_page10pool_flagsj+0x1c1>
c0003671:	8b 45 f0             	mov    -0x10(%ebp),%eax
c0003674:	83 ec 08             	sub    $0x8,%esp
c0003677:	ff 75 e0             	pushl  -0x20(%ebp)
c000367a:	50                   	push   %eax
c000367b:	e8 50 fe ff ff       	call   c00034d0 <_Z14page_table_addPvS_>
c0003680:	83 c4 10             	add    $0x10,%esp
c0003683:	81 45 f0 00 10 00 00 	addl   $0x1000,-0x10(%ebp)
c000368a:	eb 8a                	jmp    c0003616 <_Z11malloc_page10pool_flagsj+0x62>
c000368c:	e8 8b fa ff ff       	call   c000311c <_Z14running_threadv>
c0003691:	89 45 dc             	mov    %eax,-0x24(%ebp)
c0003694:	8b 45 dc             	mov    -0x24(%ebp),%eax
c0003697:	83 c0 48             	add    $0x48,%eax
c000369a:	83 ec 0c             	sub    $0xc,%esp
c000369d:	50                   	push   %eax
c000369e:	e8 e7 0e 00 00       	call   c000458a <_ZN4lock12lock_acquireEv>
c00036a3:	83 c4 10             	add    $0x10,%esp
c00036a6:	8b 45 dc             	mov    -0x24(%ebp),%eax
c00036a9:	83 c0 38             	add    $0x38,%eax
c00036ac:	83 ec 08             	sub    $0x8,%esp
c00036af:	ff 75 0c             	pushl  0xc(%ebp)
c00036b2:	50                   	push   %eax
c00036b3:	e8 5c fd ff ff       	call   c0003414 <_ZN4pool8addr_getEj>
c00036b8:	83 c4 10             	add    $0x10,%esp
c00036bb:	89 45 f4             	mov    %eax,-0xc(%ebp)
c00036be:	8b 45 dc             	mov    -0x24(%ebp),%eax
c00036c1:	83 c0 48             	add    $0x48,%eax
c00036c4:	83 ec 0c             	sub    $0xc,%esp
c00036c7:	50                   	push   %eax
c00036c8:	e8 17 0f 00 00       	call   c00045e4 <_ZN4lock12lock_releaseEv>
c00036cd:	83 c4 10             	add    $0x10,%esp
c00036d0:	83 7d f4 00          	cmpl   $0x0,-0xc(%ebp)
c00036d4:	75 0a                	jne    c00036e0 <_Z11malloc_page10pool_flagsj+0x12c>
c00036d6:	b8 00 00 00 00       	mov    $0x0,%eax
c00036db:	e9 95 00 00 00       	jmp    c0003775 <_Z11malloc_page10pool_flagsj+0x1c1>
c00036e0:	8b 45 f4             	mov    -0xc(%ebp),%eax
c00036e3:	89 45 e8             	mov    %eax,-0x18(%ebp)
c00036e6:	8b 45 0c             	mov    0xc(%ebp),%eax
c00036e9:	89 45 e4             	mov    %eax,-0x1c(%ebp)
c00036ec:	8b 45 e4             	mov    -0x1c(%ebp),%eax
c00036ef:	8d 50 ff             	lea    -0x1(%eax),%edx
c00036f2:	89 55 e4             	mov    %edx,-0x1c(%ebp)
c00036f5:	85 c0                	test   %eax,%eax
c00036f7:	0f 95 c0             	setne  %al
c00036fa:	84 c0                	test   %al,%al
c00036fc:	74 5d                	je     c000375b <_Z11malloc_page10pool_flagsj+0x1a7>
c00036fe:	83 ec 0c             	sub    $0xc,%esp
c0003701:	68 b0 7a 00 c0       	push   $0xc0007ab0
c0003706:	e8 7f 0e 00 00       	call   c000458a <_ZN4lock12lock_acquireEv>
c000370b:	83 c4 10             	add    $0x10,%esp
c000370e:	83 ec 08             	sub    $0x8,%esp
c0003711:	6a 01                	push   $0x1
c0003713:	68 a0 7a 00 c0       	push   $0xc0007aa0
c0003718:	e8 f7 fc ff ff       	call   c0003414 <_ZN4pool8addr_getEj>
c000371d:	83 c4 10             	add    $0x10,%esp
c0003720:	89 45 d8             	mov    %eax,-0x28(%ebp)
c0003723:	83 ec 0c             	sub    $0xc,%esp
c0003726:	68 b0 7a 00 c0       	push   $0xc0007ab0
c000372b:	e8 b4 0e 00 00       	call   c00045e4 <_ZN4lock12lock_releaseEv>
c0003730:	83 c4 10             	add    $0x10,%esp
c0003733:	83 7d d8 00          	cmpl   $0x0,-0x28(%ebp)
c0003737:	75 07                	jne    c0003740 <_Z11malloc_page10pool_flagsj+0x18c>
c0003739:	b8 00 00 00 00       	mov    $0x0,%eax
c000373e:	eb 35                	jmp    c0003775 <_Z11malloc_page10pool_flagsj+0x1c1>
c0003740:	8b 45 e8             	mov    -0x18(%ebp),%eax
c0003743:	83 ec 08             	sub    $0x8,%esp
c0003746:	ff 75 d8             	pushl  -0x28(%ebp)
c0003749:	50                   	push   %eax
c000374a:	e8 81 fd ff ff       	call   c00034d0 <_Z14page_table_addPvS_>
c000374f:	83 c4 10             	add    $0x10,%esp
c0003752:	81 45 e8 00 10 00 00 	addl   $0x1000,-0x18(%ebp)
c0003759:	eb 91                	jmp    c00036ec <_Z11malloc_page10pool_flagsj+0x138>
c000375b:	8b 45 0c             	mov    0xc(%ebp),%eax
c000375e:	c1 e0 0c             	shl    $0xc,%eax
c0003761:	83 ec 04             	sub    $0x4,%esp
c0003764:	50                   	push   %eax
c0003765:	6a 00                	push   $0x0
c0003767:	ff 75 f4             	pushl  -0xc(%ebp)
c000376a:	e8 3f e6 ff ff       	call   c0001dae <_Z6memsetPvhj>
c000376f:	83 c4 10             	add    $0x10,%esp
c0003772:	8b 45 f4             	mov    -0xc(%ebp),%eax
c0003775:	c9                   	leave  
c0003776:	c3                   	ret    

c0003777 <_Z18get_designed_vaddr10pool_flagsj>:
c0003777:	55                   	push   %ebp
c0003778:	89 e5                	mov    %esp,%ebp
c000377a:	83 ec 18             	sub    $0x18,%esp
c000377d:	c7 45 f4 00 00 00 00 	movl   $0x0,-0xc(%ebp)
c0003784:	83 7d 08 01          	cmpl   $0x1,0x8(%ebp)
c0003788:	0f 85 d4 00 00 00    	jne    c0003862 <_Z18get_designed_vaddr10pool_flagsj+0xeb>
c000378e:	83 ec 0c             	sub    $0xc,%esp
c0003791:	68 70 7a 00 c0       	push   $0xc0007a70
c0003796:	e8 ef 0d 00 00       	call   c000458a <_ZN4lock12lock_acquireEv>
c000379b:	83 c4 10             	add    $0x10,%esp
c000379e:	83 ec 08             	sub    $0x8,%esp
c00037a1:	6a 01                	push   $0x1
c00037a3:	68 60 7a 00 c0       	push   $0xc0007a60
c00037a8:	e8 67 fc ff ff       	call   c0003414 <_ZN4pool8addr_getEj>
c00037ad:	83 c4 10             	add    $0x10,%esp
c00037b0:	89 45 f4             	mov    %eax,-0xc(%ebp)
c00037b3:	83 ec 0c             	sub    $0xc,%esp
c00037b6:	68 70 7a 00 c0       	push   $0xc0007a70
c00037bb:	e8 24 0e 00 00       	call   c00045e4 <_ZN4lock12lock_releaseEv>
c00037c0:	83 c4 10             	add    $0x10,%esp
c00037c3:	83 7d f4 00          	cmpl   $0x0,-0xc(%ebp)
c00037c7:	75 0a                	jne    c00037d3 <_Z18get_designed_vaddr10pool_flagsj+0x5c>
c00037c9:	b8 00 00 00 00       	mov    $0x0,%eax
c00037ce:	e9 85 01 00 00       	jmp    c0003958 <_Z18get_designed_vaddr10pool_flagsj+0x1e1>
c00037d3:	83 ec 0c             	sub    $0xc,%esp
c00037d6:	68 f0 7a 00 c0       	push   $0xc0007af0
c00037db:	e8 aa 0d 00 00       	call   c000458a <_ZN4lock12lock_acquireEv>
c00037e0:	83 c4 10             	add    $0x10,%esp
c00037e3:	a1 e8 7a 00 c0       	mov    0xc0007ae8,%eax
c00037e8:	8b 55 0c             	mov    0xc(%ebp),%edx
c00037eb:	29 c2                	sub    %eax,%edx
c00037ed:	89 d0                	mov    %edx,%eax
c00037ef:	c1 e8 0c             	shr    $0xc,%eax
c00037f2:	89 45 f0             	mov    %eax,-0x10(%ebp)
c00037f5:	83 ec 08             	sub    $0x8,%esp
c00037f8:	ff 75 f0             	pushl  -0x10(%ebp)
c00037fb:	68 e0 7a 00 c0       	push   $0xc0007ae0
c0003800:	e8 8b f6 ff ff       	call   c0002e90 <_ZN6bitmap11bitmap_testEj>
c0003805:	83 c4 10             	add    $0x10,%esp
c0003808:	85 c0                	test   %eax,%eax
c000380a:	0f 95 c0             	setne  %al
c000380d:	84 c0                	test   %al,%al
c000380f:	74 2a                	je     c000383b <_Z18get_designed_vaddr10pool_flagsj+0xc4>
c0003811:	83 ec 0c             	sub    $0xc,%esp
c0003814:	68 f0 7a 00 c0       	push   $0xc0007af0
c0003819:	e8 c6 0d 00 00       	call   c00045e4 <_ZN4lock12lock_releaseEv>
c000381e:	83 c4 10             	add    $0x10,%esp
c0003821:	83 ec 0c             	sub    $0xc,%esp
c0003824:	68 3d 57 00 c0       	push   $0xc000573d
c0003829:	e8 b3 df ff ff       	call   c00017e1 <_Z8k_printfPKcz>
c000382e:	83 c4 10             	add    $0x10,%esp
c0003831:	b8 00 00 00 00       	mov    $0x0,%eax
c0003836:	e9 1d 01 00 00       	jmp    c0003958 <_Z18get_designed_vaddr10pool_flagsj+0x1e1>
c000383b:	83 ec 0c             	sub    $0xc,%esp
c000383e:	68 f0 7a 00 c0       	push   $0xc0007af0
c0003843:	e8 9c 0d 00 00       	call   c00045e4 <_ZN4lock12lock_releaseEv>
c0003848:	83 c4 10             	add    $0x10,%esp
c000384b:	8b 45 0c             	mov    0xc(%ebp),%eax
c000384e:	83 ec 08             	sub    $0x8,%esp
c0003851:	ff 75 f4             	pushl  -0xc(%ebp)
c0003854:	50                   	push   %eax
c0003855:	e8 76 fc ff ff       	call   c00034d0 <_Z14page_table_addPvS_>
c000385a:	83 c4 10             	add    $0x10,%esp
c000385d:	e9 dd 00 00 00       	jmp    c000393f <_Z18get_designed_vaddr10pool_flagsj+0x1c8>
c0003862:	e8 b5 f8 ff ff       	call   c000311c <_Z14running_threadv>
c0003867:	89 45 ec             	mov    %eax,-0x14(%ebp)
c000386a:	83 ec 0c             	sub    $0xc,%esp
c000386d:	68 b0 7a 00 c0       	push   $0xc0007ab0
c0003872:	e8 13 0d 00 00       	call   c000458a <_ZN4lock12lock_acquireEv>
c0003877:	83 c4 10             	add    $0x10,%esp
c000387a:	83 ec 08             	sub    $0x8,%esp
c000387d:	6a 01                	push   $0x1
c000387f:	68 a0 7a 00 c0       	push   $0xc0007aa0
c0003884:	e8 8b fb ff ff       	call   c0003414 <_ZN4pool8addr_getEj>
c0003889:	83 c4 10             	add    $0x10,%esp
c000388c:	89 45 f4             	mov    %eax,-0xc(%ebp)
c000388f:	83 ec 0c             	sub    $0xc,%esp
c0003892:	68 b0 7a 00 c0       	push   $0xc0007ab0
c0003897:	e8 48 0d 00 00       	call   c00045e4 <_ZN4lock12lock_releaseEv>
c000389c:	83 c4 10             	add    $0x10,%esp
c000389f:	83 7d f4 00          	cmpl   $0x0,-0xc(%ebp)
c00038a3:	75 0a                	jne    c00038af <_Z18get_designed_vaddr10pool_flagsj+0x138>
c00038a5:	b8 00 00 00 00       	mov    $0x0,%eax
c00038aa:	e9 a9 00 00 00       	jmp    c0003958 <_Z18get_designed_vaddr10pool_flagsj+0x1e1>
c00038af:	8b 45 ec             	mov    -0x14(%ebp),%eax
c00038b2:	83 c0 48             	add    $0x48,%eax
c00038b5:	83 ec 0c             	sub    $0xc,%esp
c00038b8:	50                   	push   %eax
c00038b9:	e8 cc 0c 00 00       	call   c000458a <_ZN4lock12lock_acquireEv>
c00038be:	83 c4 10             	add    $0x10,%esp
c00038c1:	8b 45 ec             	mov    -0x14(%ebp),%eax
c00038c4:	8b 40 40             	mov    0x40(%eax),%eax
c00038c7:	8b 55 0c             	mov    0xc(%ebp),%edx
c00038ca:	29 c2                	sub    %eax,%edx
c00038cc:	89 d0                	mov    %edx,%eax
c00038ce:	c1 e8 0c             	shr    $0xc,%eax
c00038d1:	89 45 e8             	mov    %eax,-0x18(%ebp)
c00038d4:	8b 45 ec             	mov    -0x14(%ebp),%eax
c00038d7:	83 c0 38             	add    $0x38,%eax
c00038da:	83 ec 08             	sub    $0x8,%esp
c00038dd:	ff 75 e8             	pushl  -0x18(%ebp)
c00038e0:	50                   	push   %eax
c00038e1:	e8 aa f5 ff ff       	call   c0002e90 <_ZN6bitmap11bitmap_testEj>
c00038e6:	83 c4 10             	add    $0x10,%esp
c00038e9:	85 c0                	test   %eax,%eax
c00038eb:	0f 95 c0             	setne  %al
c00038ee:	84 c0                	test   %al,%al
c00038f0:	74 29                	je     c000391b <_Z18get_designed_vaddr10pool_flagsj+0x1a4>
c00038f2:	8b 45 ec             	mov    -0x14(%ebp),%eax
c00038f5:	83 c0 48             	add    $0x48,%eax
c00038f8:	83 ec 0c             	sub    $0xc,%esp
c00038fb:	50                   	push   %eax
c00038fc:	e8 e3 0c 00 00       	call   c00045e4 <_ZN4lock12lock_releaseEv>
c0003901:	83 c4 10             	add    $0x10,%esp
c0003904:	83 ec 0c             	sub    $0xc,%esp
c0003907:	68 3d 57 00 c0       	push   $0xc000573d
c000390c:	e8 d0 de ff ff       	call   c00017e1 <_Z8k_printfPKcz>
c0003911:	83 c4 10             	add    $0x10,%esp
c0003914:	b8 00 00 00 00       	mov    $0x0,%eax
c0003919:	eb 3d                	jmp    c0003958 <_Z18get_designed_vaddr10pool_flagsj+0x1e1>
c000391b:	8b 45 ec             	mov    -0x14(%ebp),%eax
c000391e:	83 c0 48             	add    $0x48,%eax
c0003921:	83 ec 0c             	sub    $0xc,%esp
c0003924:	50                   	push   %eax
c0003925:	e8 ba 0c 00 00       	call   c00045e4 <_ZN4lock12lock_releaseEv>
c000392a:	83 c4 10             	add    $0x10,%esp
c000392d:	8b 45 0c             	mov    0xc(%ebp),%eax
c0003930:	83 ec 08             	sub    $0x8,%esp
c0003933:	ff 75 f4             	pushl  -0xc(%ebp)
c0003936:	50                   	push   %eax
c0003937:	e8 94 fb ff ff       	call   c00034d0 <_Z14page_table_addPvS_>
c000393c:	83 c4 10             	add    $0x10,%esp
c000393f:	8b 45 0c             	mov    0xc(%ebp),%eax
c0003942:	83 ec 04             	sub    $0x4,%esp
c0003945:	68 00 10 00 00       	push   $0x1000
c000394a:	6a 00                	push   $0x0
c000394c:	50                   	push   %eax
c000394d:	e8 5c e4 ff ff       	call   c0001dae <_Z6memsetPvhj>
c0003952:	83 c4 10             	add    $0x10,%esp
c0003955:	8b 45 0c             	mov    0xc(%ebp),%eax
c0003958:	c9                   	leave  
c0003959:	c3                   	ret    

c000395a <_Z8addr_v2pj>:
c000395a:	55                   	push   %ebp
c000395b:	89 e5                	mov    %esp,%ebp
c000395d:	83 ec 10             	sub    $0x10,%esp
c0003960:	ff 75 08             	pushl  0x8(%ebp)
c0003963:	e8 1c fb ff ff       	call   c0003484 <_Z7pte_ptrj>
c0003968:	83 c4 04             	add    $0x4,%esp
c000396b:	89 45 fc             	mov    %eax,-0x4(%ebp)
c000396e:	8b 45 fc             	mov    -0x4(%ebp),%eax
c0003971:	8b 00                	mov    (%eax),%eax
c0003973:	25 00 f0 ff ff       	and    $0xfffff000,%eax
c0003978:	89 c2                	mov    %eax,%edx
c000397a:	8b 45 08             	mov    0x8(%ebp),%eax
c000397d:	25 ff 0f 00 00       	and    $0xfff,%eax
c0003982:	01 d0                	add    %edx,%eax
c0003984:	c9                   	leave  
c0003985:	c3                   	ret    

c0003986 <_ZL11arena2blockP5arenaj>:
c0003986:	55                   	push   %ebp
c0003987:	89 e5                	mov    %esp,%ebp
c0003989:	8b 45 08             	mov    0x8(%ebp),%eax
c000398c:	8d 50 0c             	lea    0xc(%eax),%edx
c000398f:	8b 45 08             	mov    0x8(%ebp),%eax
c0003992:	8b 00                	mov    (%eax),%eax
c0003994:	8b 00                	mov    (%eax),%eax
c0003996:	0f af 45 0c          	imul   0xc(%ebp),%eax
c000399a:	01 d0                	add    %edx,%eax
c000399c:	5d                   	pop    %ebp
c000399d:	c3                   	ret    

c000399e <_ZL11block2arenaP9mem_block>:
c000399e:	55                   	push   %ebp
c000399f:	89 e5                	mov    %esp,%ebp
c00039a1:	8b 45 08             	mov    0x8(%ebp),%eax
c00039a4:	25 00 f0 ff ff       	and    $0xfffff000,%eax
c00039a9:	5d                   	pop    %ebp
c00039aa:	c3                   	ret    

c00039ab <_Z10sys_mallocj>:
c00039ab:	55                   	push   %ebp
c00039ac:	89 e5                	mov    %esp,%ebp
c00039ae:	83 ec 38             	sub    $0x38,%esp
c00039b1:	e8 66 f7 ff ff       	call   c000311c <_Z14running_threadv>
c00039b6:	89 45 e0             	mov    %eax,-0x20(%ebp)
c00039b9:	8b 45 e0             	mov    -0x20(%ebp),%eax
c00039bc:	8b 40 34             	mov    0x34(%eax),%eax
c00039bf:	85 c0                	test   %eax,%eax
c00039c1:	75 18                	jne    c00039db <_Z10sys_mallocj+0x30>
c00039c3:	c7 45 f4 01 00 00 00 	movl   $0x1,-0xc(%ebp)
c00039ca:	a1 6c 7a 00 c0       	mov    0xc0007a6c,%eax
c00039cf:	89 45 f0             	mov    %eax,-0x10(%ebp)
c00039d2:	c7 45 ec 20 7b 00 c0 	movl   $0xc0007b20,-0x14(%ebp)
c00039d9:	eb 18                	jmp    c00039f3 <_Z10sys_mallocj+0x48>
c00039db:	c7 45 f4 02 00 00 00 	movl   $0x2,-0xc(%ebp)
c00039e2:	a1 ac 7a 00 c0       	mov    0xc0007aac,%eax
c00039e7:	89 45 f0             	mov    %eax,-0x10(%ebp)
c00039ea:	8b 45 e0             	mov    -0x20(%ebp),%eax
c00039ed:	83 c0 68             	add    $0x68,%eax
c00039f0:	89 45 ec             	mov    %eax,-0x14(%ebp)
c00039f3:	83 7d 08 00          	cmpl   $0x0,0x8(%ebp)
c00039f7:	74 08                	je     c0003a01 <_Z10sys_mallocj+0x56>
c00039f9:	8b 45 08             	mov    0x8(%ebp),%eax
c00039fc:	3b 45 f0             	cmp    -0x10(%ebp),%eax
c00039ff:	72 0a                	jb     c0003a0b <_Z10sys_mallocj+0x60>
c0003a01:	b8 00 00 00 00       	mov    $0x0,%eax
c0003a06:	e9 38 02 00 00       	jmp    c0003c43 <_Z10sys_mallocj+0x298>
c0003a0b:	81 7d 08 00 04 00 00 	cmpl   $0x400,0x8(%ebp)
c0003a12:	76 5c                	jbe    c0003a70 <_Z10sys_mallocj+0xc5>
c0003a14:	8b 45 08             	mov    0x8(%ebp),%eax
c0003a17:	83 c0 0c             	add    $0xc,%eax
c0003a1a:	05 ff 0f 00 00       	add    $0xfff,%eax
c0003a1f:	c1 e8 0c             	shr    $0xc,%eax
c0003a22:	89 45 dc             	mov    %eax,-0x24(%ebp)
c0003a25:	83 ec 08             	sub    $0x8,%esp
c0003a28:	ff 75 dc             	pushl  -0x24(%ebp)
c0003a2b:	ff 75 f4             	pushl  -0xc(%ebp)
c0003a2e:	e8 81 fb ff ff       	call   c00035b4 <_Z11malloc_page10pool_flagsj>
c0003a33:	83 c4 10             	add    $0x10,%esp
c0003a36:	89 45 d8             	mov    %eax,-0x28(%ebp)
c0003a39:	83 7d d8 00          	cmpl   $0x0,-0x28(%ebp)
c0003a3d:	75 27                	jne    c0003a66 <_Z10sys_mallocj+0xbb>
c0003a3f:	8b 45 d8             	mov    -0x28(%ebp),%eax
c0003a42:	c7 00 00 00 00 00    	movl   $0x0,(%eax)
c0003a48:	8b 45 d8             	mov    -0x28(%ebp),%eax
c0003a4b:	8b 55 dc             	mov    -0x24(%ebp),%edx
c0003a4e:	89 50 04             	mov    %edx,0x4(%eax)
c0003a51:	8b 45 d8             	mov    -0x28(%ebp),%eax
c0003a54:	c7 40 08 01 00 00 00 	movl   $0x1,0x8(%eax)
c0003a5b:	8b 45 d8             	mov    -0x28(%ebp),%eax
c0003a5e:	83 c0 0c             	add    $0xc,%eax
c0003a61:	e9 dd 01 00 00       	jmp    c0003c43 <_Z10sys_mallocj+0x298>
c0003a66:	b8 00 00 00 00       	mov    $0x0,%eax
c0003a6b:	e9 d3 01 00 00       	jmp    c0003c43 <_Z10sys_mallocj+0x298>
c0003a70:	c6 45 eb 00          	movb   $0x0,-0x15(%ebp)
c0003a74:	80 7d eb 06          	cmpb   $0x6,-0x15(%ebp)
c0003a78:	77 29                	ja     c0003aa3 <_Z10sys_mallocj+0xf8>
c0003a7a:	0f b6 45 eb          	movzbl -0x15(%ebp),%eax
c0003a7e:	c1 e0 02             	shl    $0x2,%eax
c0003a81:	8d 14 c5 00 00 00 00 	lea    0x0(,%eax,8),%edx
c0003a88:	29 c2                	sub    %eax,%edx
c0003a8a:	8b 45 ec             	mov    -0x14(%ebp),%eax
c0003a8d:	01 d0                	add    %edx,%eax
c0003a8f:	8b 00                	mov    (%eax),%eax
c0003a91:	3b 45 08             	cmp    0x8(%ebp),%eax
c0003a94:	73 0c                	jae    c0003aa2 <_Z10sys_mallocj+0xf7>
c0003a96:	0f b6 45 eb          	movzbl -0x15(%ebp),%eax
c0003a9a:	83 c0 01             	add    $0x1,%eax
c0003a9d:	88 45 eb             	mov    %al,-0x15(%ebp)
c0003aa0:	eb d2                	jmp    c0003a74 <_Z10sys_mallocj+0xc9>
c0003aa2:	90                   	nop
c0003aa3:	0f b6 45 eb          	movzbl -0x15(%ebp),%eax
c0003aa7:	c1 e0 02             	shl    $0x2,%eax
c0003aaa:	8d 14 c5 00 00 00 00 	lea    0x0(,%eax,8),%edx
c0003ab1:	29 c2                	sub    %eax,%edx
c0003ab3:	8b 45 ec             	mov    -0x14(%ebp),%eax
c0003ab6:	01 d0                	add    %edx,%eax
c0003ab8:	83 c0 08             	add    $0x8,%eax
c0003abb:	83 ec 0c             	sub    $0xc,%esp
c0003abe:	50                   	push   %eax
c0003abf:	e8 7a f3 ff ff       	call   c0002e3e <_ZN4list8is_emptyEv>
c0003ac4:	83 c4 10             	add    $0x10,%esp
c0003ac7:	85 c0                	test   %eax,%eax
c0003ac9:	0f 95 c0             	setne  %al
c0003acc:	84 c0                	test   %al,%al
c0003ace:	0f 84 d1 00 00 00    	je     c0003ba5 <_Z10sys_mallocj+0x1fa>
c0003ad4:	83 ec 08             	sub    $0x8,%esp
c0003ad7:	6a 01                	push   $0x1
c0003ad9:	ff 75 f4             	pushl  -0xc(%ebp)
c0003adc:	e8 d3 fa ff ff       	call   c00035b4 <_Z11malloc_page10pool_flagsj>
c0003ae1:	83 c4 10             	add    $0x10,%esp
c0003ae4:	89 45 d8             	mov    %eax,-0x28(%ebp)
c0003ae7:	83 7d d8 00          	cmpl   $0x0,-0x28(%ebp)
c0003aeb:	75 0a                	jne    c0003af7 <_Z10sys_mallocj+0x14c>
c0003aed:	b8 00 00 00 00       	mov    $0x0,%eax
c0003af2:	e9 4c 01 00 00       	jmp    c0003c43 <_Z10sys_mallocj+0x298>
c0003af7:	0f b6 45 eb          	movzbl -0x15(%ebp),%eax
c0003afb:	c1 e0 02             	shl    $0x2,%eax
c0003afe:	8d 14 c5 00 00 00 00 	lea    0x0(,%eax,8),%edx
c0003b05:	29 c2                	sub    %eax,%edx
c0003b07:	8b 45 ec             	mov    -0x14(%ebp),%eax
c0003b0a:	01 c2                	add    %eax,%edx
c0003b0c:	8b 45 d8             	mov    -0x28(%ebp),%eax
c0003b0f:	89 10                	mov    %edx,(%eax)
c0003b11:	8b 45 d8             	mov    -0x28(%ebp),%eax
c0003b14:	c7 40 08 00 00 00 00 	movl   $0x0,0x8(%eax)
c0003b1b:	0f b6 45 eb          	movzbl -0x15(%ebp),%eax
c0003b1f:	c1 e0 02             	shl    $0x2,%eax
c0003b22:	8d 14 c5 00 00 00 00 	lea    0x0(,%eax,8),%edx
c0003b29:	29 c2                	sub    %eax,%edx
c0003b2b:	8b 45 ec             	mov    -0x14(%ebp),%eax
c0003b2e:	01 d0                	add    %edx,%eax
c0003b30:	8b 50 04             	mov    0x4(%eax),%edx
c0003b33:	8b 45 d8             	mov    -0x28(%ebp),%eax
c0003b36:	89 50 04             	mov    %edx,0x4(%eax)
c0003b39:	e8 6e e9 ff ff       	call   c00024ac <_Z12intr_disablev>
c0003b3e:	89 45 d4             	mov    %eax,-0x2c(%ebp)
c0003b41:	c7 45 e4 00 00 00 00 	movl   $0x0,-0x1c(%ebp)
c0003b48:	0f b6 45 eb          	movzbl -0x15(%ebp),%eax
c0003b4c:	c1 e0 02             	shl    $0x2,%eax
c0003b4f:	8d 14 c5 00 00 00 00 	lea    0x0(,%eax,8),%edx
c0003b56:	29 c2                	sub    %eax,%edx
c0003b58:	8b 45 ec             	mov    -0x14(%ebp),%eax
c0003b5b:	01 d0                	add    %edx,%eax
c0003b5d:	8b 40 04             	mov    0x4(%eax),%eax
c0003b60:	3b 45 e4             	cmp    -0x1c(%ebp),%eax
c0003b63:	76 32                	jbe    c0003b97 <_Z10sys_mallocj+0x1ec>
c0003b65:	83 ec 08             	sub    $0x8,%esp
c0003b68:	ff 75 e4             	pushl  -0x1c(%ebp)
c0003b6b:	ff 75 d8             	pushl  -0x28(%ebp)
c0003b6e:	e8 13 fe ff ff       	call   c0003986 <_ZL11arena2blockP5arenaj>
c0003b73:	83 c4 10             	add    $0x10,%esp
c0003b76:	89 45 d0             	mov    %eax,-0x30(%ebp)
c0003b79:	8b 45 d0             	mov    -0x30(%ebp),%eax
c0003b7c:	8b 55 d8             	mov    -0x28(%ebp),%edx
c0003b7f:	8b 12                	mov    (%edx),%edx
c0003b81:	83 c2 08             	add    $0x8,%edx
c0003b84:	83 ec 08             	sub    $0x8,%esp
c0003b87:	50                   	push   %eax
c0003b88:	52                   	push   %edx
c0003b89:	e8 56 f1 ff ff       	call   c0002ce4 <_ZN4list10push_frontEP9list_elem>
c0003b8e:	83 c4 10             	add    $0x10,%esp
c0003b91:	83 45 e4 01          	addl   $0x1,-0x1c(%ebp)
c0003b95:	eb b1                	jmp    c0003b48 <_Z10sys_mallocj+0x19d>
c0003b97:	83 ec 0c             	sub    $0xc,%esp
c0003b9a:	ff 75 d4             	pushl  -0x2c(%ebp)
c0003b9d:	e8 38 e9 ff ff       	call   c00024da <_Z15intr_set_status11intr_status>
c0003ba2:	83 c4 10             	add    $0x10,%esp
c0003ba5:	83 7d f4 01          	cmpl   $0x1,-0xc(%ebp)
c0003ba9:	75 10                	jne    c0003bbb <_Z10sys_mallocj+0x210>
c0003bab:	83 ec 0c             	sub    $0xc,%esp
c0003bae:	68 00 7c 00 c0       	push   $0xc0007c00
c0003bb3:	e8 d2 09 00 00       	call   c000458a <_ZN4lock12lock_acquireEv>
c0003bb8:	83 c4 10             	add    $0x10,%esp
c0003bbb:	0f b6 45 eb          	movzbl -0x15(%ebp),%eax
c0003bbf:	c1 e0 02             	shl    $0x2,%eax
c0003bc2:	8d 14 c5 00 00 00 00 	lea    0x0(,%eax,8),%edx
c0003bc9:	29 c2                	sub    %eax,%edx
c0003bcb:	8b 45 ec             	mov    -0x14(%ebp),%eax
c0003bce:	01 d0                	add    %edx,%eax
c0003bd0:	83 c0 08             	add    $0x8,%eax
c0003bd3:	83 ec 0c             	sub    $0xc,%esp
c0003bd6:	50                   	push   %eax
c0003bd7:	e8 96 f1 ff ff       	call   c0002d72 <_ZN4list8pop_backEv>
c0003bdc:	83 c4 10             	add    $0x10,%esp
c0003bdf:	89 45 d0             	mov    %eax,-0x30(%ebp)
c0003be2:	0f b6 45 eb          	movzbl -0x15(%ebp),%eax
c0003be6:	c1 e0 02             	shl    $0x2,%eax
c0003be9:	8d 14 c5 00 00 00 00 	lea    0x0(,%eax,8),%edx
c0003bf0:	29 c2                	sub    %eax,%edx
c0003bf2:	8b 45 ec             	mov    -0x14(%ebp),%eax
c0003bf5:	01 d0                	add    %edx,%eax
c0003bf7:	8b 00                	mov    (%eax),%eax
c0003bf9:	83 ec 04             	sub    $0x4,%esp
c0003bfc:	50                   	push   %eax
c0003bfd:	6a 00                	push   $0x0
c0003bff:	ff 75 d0             	pushl  -0x30(%ebp)
c0003c02:	e8 a7 e1 ff ff       	call   c0001dae <_Z6memsetPvhj>
c0003c07:	83 c4 10             	add    $0x10,%esp
c0003c0a:	83 ec 0c             	sub    $0xc,%esp
c0003c0d:	ff 75 d0             	pushl  -0x30(%ebp)
c0003c10:	e8 89 fd ff ff       	call   c000399e <_ZL11block2arenaP9mem_block>
c0003c15:	83 c4 10             	add    $0x10,%esp
c0003c18:	89 45 d8             	mov    %eax,-0x28(%ebp)
c0003c1b:	8b 45 d8             	mov    -0x28(%ebp),%eax
c0003c1e:	8b 40 04             	mov    0x4(%eax),%eax
c0003c21:	8d 50 ff             	lea    -0x1(%eax),%edx
c0003c24:	8b 45 d8             	mov    -0x28(%ebp),%eax
c0003c27:	89 50 04             	mov    %edx,0x4(%eax)
c0003c2a:	83 7d f4 01          	cmpl   $0x1,-0xc(%ebp)
c0003c2e:	75 10                	jne    c0003c40 <_Z10sys_mallocj+0x295>
c0003c30:	83 ec 0c             	sub    $0xc,%esp
c0003c33:	68 00 7c 00 c0       	push   $0xc0007c00
c0003c38:	e8 a7 09 00 00       	call   c00045e4 <_ZN4lock12lock_releaseEv>
c0003c3d:	83 c4 10             	add    $0x10,%esp
c0003c40:	8b 45 d0             	mov    -0x30(%ebp),%eax
c0003c43:	c9                   	leave  
c0003c44:	c3                   	ret    

c0003c45 <_Z5pfreej>:
c0003c45:	55                   	push   %ebp
c0003c46:	89 e5                	mov    %esp,%ebp
c0003c48:	83 ec 18             	sub    $0x18,%esp
c0003c4b:	c7 45 f0 00 00 00 00 	movl   $0x0,-0x10(%ebp)
c0003c52:	a1 a8 7a 00 c0       	mov    0xc0007aa8,%eax
c0003c57:	3b 45 08             	cmp    0x8(%ebp),%eax
c0003c5a:	77 1b                	ja     c0003c77 <_Z5pfreej+0x32>
c0003c5c:	c7 45 f4 a0 7a 00 c0 	movl   $0xc0007aa0,-0xc(%ebp)
c0003c63:	a1 a8 7a 00 c0       	mov    0xc0007aa8,%eax
c0003c68:	8b 55 08             	mov    0x8(%ebp),%edx
c0003c6b:	29 c2                	sub    %eax,%edx
c0003c6d:	89 d0                	mov    %edx,%eax
c0003c6f:	c1 e8 0c             	shr    $0xc,%eax
c0003c72:	89 45 f0             	mov    %eax,-0x10(%ebp)
c0003c75:	eb 19                	jmp    c0003c90 <_Z5pfreej+0x4b>
c0003c77:	c7 45 f4 60 7a 00 c0 	movl   $0xc0007a60,-0xc(%ebp)
c0003c7e:	a1 68 7a 00 c0       	mov    0xc0007a68,%eax
c0003c83:	8b 55 08             	mov    0x8(%ebp),%edx
c0003c86:	29 c2                	sub    %eax,%edx
c0003c88:	89 d0                	mov    %edx,%eax
c0003c8a:	c1 e8 0c             	shr    $0xc,%eax
c0003c8d:	89 45 f0             	mov    %eax,-0x10(%ebp)
c0003c90:	8b 45 f4             	mov    -0xc(%ebp),%eax
c0003c93:	83 c0 10             	add    $0x10,%eax
c0003c96:	83 ec 0c             	sub    $0xc,%esp
c0003c99:	50                   	push   %eax
c0003c9a:	e8 eb 08 00 00       	call   c000458a <_ZN4lock12lock_acquireEv>
c0003c9f:	83 c4 10             	add    $0x10,%esp
c0003ca2:	8b 45 f4             	mov    -0xc(%ebp),%eax
c0003ca5:	83 ec 04             	sub    $0x4,%esp
c0003ca8:	6a 00                	push   $0x0
c0003caa:	ff 75 f0             	pushl  -0x10(%ebp)
c0003cad:	50                   	push   %eax
c0003cae:	e8 25 f3 ff ff       	call   c0002fd8 <_ZN6bitmap10bitmap_setEjh>
c0003cb3:	83 c4 10             	add    $0x10,%esp
c0003cb6:	8b 45 f4             	mov    -0xc(%ebp),%eax
c0003cb9:	83 c0 10             	add    $0x10,%eax
c0003cbc:	83 ec 0c             	sub    $0xc,%esp
c0003cbf:	50                   	push   %eax
c0003cc0:	e8 c5 08 00 00       	call   c000458a <_ZN4lock12lock_acquireEv>
c0003cc5:	83 c4 10             	add    $0x10,%esp
c0003cc8:	90                   	nop
c0003cc9:	c9                   	leave  
c0003cca:	c3                   	ret    

c0003ccb <_ZL21page_table_pte_removej>:
c0003ccb:	55                   	push   %ebp
c0003ccc:	89 e5                	mov    %esp,%ebp
c0003cce:	83 ec 10             	sub    $0x10,%esp
c0003cd1:	8b 45 08             	mov    0x8(%ebp),%eax
c0003cd4:	50                   	push   %eax
c0003cd5:	e8 aa f7 ff ff       	call   c0003484 <_Z7pte_ptrj>
c0003cda:	83 c4 04             	add    $0x4,%esp
c0003cdd:	89 45 fc             	mov    %eax,-0x4(%ebp)
c0003ce0:	8b 45 fc             	mov    -0x4(%ebp),%eax
c0003ce3:	8b 00                	mov    (%eax),%eax
c0003ce5:	83 e0 fe             	and    $0xfffffffe,%eax
c0003ce8:	89 c2                	mov    %eax,%edx
c0003cea:	8b 45 fc             	mov    -0x4(%ebp),%eax
c0003ced:	89 10                	mov    %edx,(%eax)
c0003cef:	0f 01 7d 08          	invlpg 0x8(%ebp)
c0003cf3:	90                   	nop
c0003cf4:	c9                   	leave  
c0003cf5:	c3                   	ret    

c0003cf6 <_ZL12vaddr_remove10pool_flagsPvj>:
c0003cf6:	55                   	push   %ebp
c0003cf7:	89 e5                	mov    %esp,%ebp
c0003cf9:	83 ec 18             	sub    $0x18,%esp
c0003cfc:	c7 45 f0 00 00 00 00 	movl   $0x0,-0x10(%ebp)
c0003d03:	8b 45 0c             	mov    0xc(%ebp),%eax
c0003d06:	89 45 ec             	mov    %eax,-0x14(%ebp)
c0003d09:	c7 45 f4 00 00 00 00 	movl   $0x0,-0xc(%ebp)
c0003d10:	83 7d 08 01          	cmpl   $0x1,0x8(%ebp)
c0003d14:	75 61                	jne    c0003d77 <_ZL12vaddr_remove10pool_flagsPvj+0x81>
c0003d16:	a1 e8 7a 00 c0       	mov    0xc0007ae8,%eax
c0003d1b:	8b 55 ec             	mov    -0x14(%ebp),%edx
c0003d1e:	29 c2                	sub    %eax,%edx
c0003d20:	89 d0                	mov    %edx,%eax
c0003d22:	c1 e8 0c             	shr    $0xc,%eax
c0003d25:	89 45 f0             	mov    %eax,-0x10(%ebp)
c0003d28:	8b 45 f4             	mov    -0xc(%ebp),%eax
c0003d2b:	3b 45 10             	cmp    0x10(%ebp),%eax
c0003d2e:	0f 83 af 00 00 00    	jae    c0003de3 <_ZL12vaddr_remove10pool_flagsPvj+0xed>
c0003d34:	83 ec 0c             	sub    $0xc,%esp
c0003d37:	68 f0 7a 00 c0       	push   $0xc0007af0
c0003d3c:	e8 49 08 00 00       	call   c000458a <_ZN4lock12lock_acquireEv>
c0003d41:	83 c4 10             	add    $0x10,%esp
c0003d44:	8b 45 f4             	mov    -0xc(%ebp),%eax
c0003d47:	8d 50 01             	lea    0x1(%eax),%edx
c0003d4a:	89 55 f4             	mov    %edx,-0xc(%ebp)
c0003d4d:	8b 55 f0             	mov    -0x10(%ebp),%edx
c0003d50:	01 d0                	add    %edx,%eax
c0003d52:	83 ec 04             	sub    $0x4,%esp
c0003d55:	6a 00                	push   $0x0
c0003d57:	50                   	push   %eax
c0003d58:	68 e0 7a 00 c0       	push   $0xc0007ae0
c0003d5d:	e8 76 f2 ff ff       	call   c0002fd8 <_ZN6bitmap10bitmap_setEjh>
c0003d62:	83 c4 10             	add    $0x10,%esp
c0003d65:	83 ec 0c             	sub    $0xc,%esp
c0003d68:	68 f0 7a 00 c0       	push   $0xc0007af0
c0003d6d:	e8 72 08 00 00       	call   c00045e4 <_ZN4lock12lock_releaseEv>
c0003d72:	83 c4 10             	add    $0x10,%esp
c0003d75:	eb b1                	jmp    c0003d28 <_ZL12vaddr_remove10pool_flagsPvj+0x32>
c0003d77:	e8 a0 f3 ff ff       	call   c000311c <_Z14running_threadv>
c0003d7c:	89 45 e8             	mov    %eax,-0x18(%ebp)
c0003d7f:	8b 45 e8             	mov    -0x18(%ebp),%eax
c0003d82:	8b 40 40             	mov    0x40(%eax),%eax
c0003d85:	8b 55 ec             	mov    -0x14(%ebp),%edx
c0003d88:	29 c2                	sub    %eax,%edx
c0003d8a:	89 d0                	mov    %edx,%eax
c0003d8c:	c1 e8 0c             	shr    $0xc,%eax
c0003d8f:	89 45 f0             	mov    %eax,-0x10(%ebp)
c0003d92:	8b 45 f4             	mov    -0xc(%ebp),%eax
c0003d95:	3b 45 10             	cmp    0x10(%ebp),%eax
c0003d98:	73 49                	jae    c0003de3 <_ZL12vaddr_remove10pool_flagsPvj+0xed>
c0003d9a:	8b 45 e8             	mov    -0x18(%ebp),%eax
c0003d9d:	83 c0 48             	add    $0x48,%eax
c0003da0:	83 ec 0c             	sub    $0xc,%esp
c0003da3:	50                   	push   %eax
c0003da4:	e8 e1 07 00 00       	call   c000458a <_ZN4lock12lock_acquireEv>
c0003da9:	83 c4 10             	add    $0x10,%esp
c0003dac:	8b 45 f4             	mov    -0xc(%ebp),%eax
c0003daf:	8d 50 01             	lea    0x1(%eax),%edx
c0003db2:	89 55 f4             	mov    %edx,-0xc(%ebp)
c0003db5:	8b 55 f0             	mov    -0x10(%ebp),%edx
c0003db8:	01 c2                	add    %eax,%edx
c0003dba:	8b 45 e8             	mov    -0x18(%ebp),%eax
c0003dbd:	83 c0 38             	add    $0x38,%eax
c0003dc0:	83 ec 04             	sub    $0x4,%esp
c0003dc3:	6a 00                	push   $0x0
c0003dc5:	52                   	push   %edx
c0003dc6:	50                   	push   %eax
c0003dc7:	e8 0c f2 ff ff       	call   c0002fd8 <_ZN6bitmap10bitmap_setEjh>
c0003dcc:	83 c4 10             	add    $0x10,%esp
c0003dcf:	8b 45 e8             	mov    -0x18(%ebp),%eax
c0003dd2:	83 c0 48             	add    $0x48,%eax
c0003dd5:	83 ec 0c             	sub    $0xc,%esp
c0003dd8:	50                   	push   %eax
c0003dd9:	e8 06 08 00 00       	call   c00045e4 <_ZN4lock12lock_releaseEv>
c0003dde:	83 c4 10             	add    $0x10,%esp
c0003de1:	eb af                	jmp    c0003d92 <_ZL12vaddr_remove10pool_flagsPvj+0x9c>
c0003de3:	90                   	nop
c0003de4:	c9                   	leave  
c0003de5:	c3                   	ret    

c0003de6 <_Z10mfree_page10pool_flagsPvj>:
c0003de6:	55                   	push   %ebp
c0003de7:	89 e5                	mov    %esp,%ebp
c0003de9:	83 ec 18             	sub    $0x18,%esp
c0003dec:	8b 45 0c             	mov    0xc(%ebp),%eax
c0003def:	89 45 f4             	mov    %eax,-0xc(%ebp)
c0003df2:	c7 45 f0 00 00 00 00 	movl   $0x0,-0x10(%ebp)
c0003df9:	ff 75 f4             	pushl  -0xc(%ebp)
c0003dfc:	e8 59 fb ff ff       	call   c000395a <_Z8addr_v2pj>
c0003e01:	83 c4 04             	add    $0x4,%esp
c0003e04:	89 45 ec             	mov    %eax,-0x14(%ebp)
c0003e07:	a1 a8 7a 00 c0       	mov    0xc0007aa8,%eax
c0003e0c:	3b 45 ec             	cmp    -0x14(%ebp),%eax
c0003e0f:	77 5c                	ja     c0003e6d <_Z10mfree_page10pool_flagsPvj+0x87>
c0003e11:	81 6d f4 00 10 00 00 	subl   $0x1000,-0xc(%ebp)
c0003e18:	8b 45 f0             	mov    -0x10(%ebp),%eax
c0003e1b:	3b 45 10             	cmp    0x10(%ebp),%eax
c0003e1e:	73 37                	jae    c0003e57 <_Z10mfree_page10pool_flagsPvj+0x71>
c0003e20:	81 45 f4 00 10 00 00 	addl   $0x1000,-0xc(%ebp)
c0003e27:	ff 75 f4             	pushl  -0xc(%ebp)
c0003e2a:	e8 2b fb ff ff       	call   c000395a <_Z8addr_v2pj>
c0003e2f:	83 c4 04             	add    $0x4,%esp
c0003e32:	89 45 ec             	mov    %eax,-0x14(%ebp)
c0003e35:	83 ec 0c             	sub    $0xc,%esp
c0003e38:	ff 75 ec             	pushl  -0x14(%ebp)
c0003e3b:	e8 05 fe ff ff       	call   c0003c45 <_Z5pfreej>
c0003e40:	83 c4 10             	add    $0x10,%esp
c0003e43:	83 ec 0c             	sub    $0xc,%esp
c0003e46:	ff 75 f4             	pushl  -0xc(%ebp)
c0003e49:	e8 7d fe ff ff       	call   c0003ccb <_ZL21page_table_pte_removej>
c0003e4e:	83 c4 10             	add    $0x10,%esp
c0003e51:	83 45 f0 01          	addl   $0x1,-0x10(%ebp)
c0003e55:	eb c1                	jmp    c0003e18 <_Z10mfree_page10pool_flagsPvj+0x32>
c0003e57:	83 ec 04             	sub    $0x4,%esp
c0003e5a:	ff 75 10             	pushl  0x10(%ebp)
c0003e5d:	ff 75 0c             	pushl  0xc(%ebp)
c0003e60:	ff 75 08             	pushl  0x8(%ebp)
c0003e63:	e8 8e fe ff ff       	call   c0003cf6 <_ZL12vaddr_remove10pool_flagsPvj>
c0003e68:	83 c4 10             	add    $0x10,%esp
c0003e6b:	eb 5d                	jmp    c0003eca <_Z10mfree_page10pool_flagsPvj+0xe4>
c0003e6d:	81 6d f4 00 10 00 00 	subl   $0x1000,-0xc(%ebp)
c0003e74:	8b 45 f0             	mov    -0x10(%ebp),%eax
c0003e77:	3b 45 10             	cmp    0x10(%ebp),%eax
c0003e7a:	73 3a                	jae    c0003eb6 <_Z10mfree_page10pool_flagsPvj+0xd0>
c0003e7c:	81 45 f4 00 10 00 00 	addl   $0x1000,-0xc(%ebp)
c0003e83:	83 ec 0c             	sub    $0xc,%esp
c0003e86:	ff 75 f4             	pushl  -0xc(%ebp)
c0003e89:	e8 cc fa ff ff       	call   c000395a <_Z8addr_v2pj>
c0003e8e:	83 c4 10             	add    $0x10,%esp
c0003e91:	89 45 ec             	mov    %eax,-0x14(%ebp)
c0003e94:	83 ec 0c             	sub    $0xc,%esp
c0003e97:	ff 75 ec             	pushl  -0x14(%ebp)
c0003e9a:	e8 a6 fd ff ff       	call   c0003c45 <_Z5pfreej>
c0003e9f:	83 c4 10             	add    $0x10,%esp
c0003ea2:	83 ec 0c             	sub    $0xc,%esp
c0003ea5:	ff 75 f4             	pushl  -0xc(%ebp)
c0003ea8:	e8 1e fe ff ff       	call   c0003ccb <_ZL21page_table_pte_removej>
c0003ead:	83 c4 10             	add    $0x10,%esp
c0003eb0:	83 45 f0 01          	addl   $0x1,-0x10(%ebp)
c0003eb4:	eb be                	jmp    c0003e74 <_Z10mfree_page10pool_flagsPvj+0x8e>
c0003eb6:	83 ec 04             	sub    $0x4,%esp
c0003eb9:	ff 75 10             	pushl  0x10(%ebp)
c0003ebc:	ff 75 0c             	pushl  0xc(%ebp)
c0003ebf:	ff 75 08             	pushl  0x8(%ebp)
c0003ec2:	e8 2f fe ff ff       	call   c0003cf6 <_ZL12vaddr_remove10pool_flagsPvj>
c0003ec7:	83 c4 10             	add    $0x10,%esp
c0003eca:	90                   	nop
c0003ecb:	c9                   	leave  
c0003ecc:	c3                   	ret    

c0003ecd <_Z8sys_freePv>:
c0003ecd:	55                   	push   %ebp
c0003ece:	89 e5                	mov    %esp,%ebp
c0003ed0:	83 ec 28             	sub    $0x28,%esp
c0003ed3:	83 7d 08 00          	cmpl   $0x0,0x8(%ebp)
c0003ed7:	0f 84 34 01 00 00    	je     c0004011 <_Z8sys_freePv+0x144>
c0003edd:	e8 3a f2 ff ff       	call   c000311c <_Z14running_threadv>
c0003ee2:	8b 40 34             	mov    0x34(%eax),%eax
c0003ee5:	85 c0                	test   %eax,%eax
c0003ee7:	0f 94 c0             	sete   %al
c0003eea:	84 c0                	test   %al,%al
c0003eec:	74 10                	je     c0003efe <_Z8sys_freePv+0x31>
c0003eee:	c7 45 f4 01 00 00 00 	movl   $0x1,-0xc(%ebp)
c0003ef5:	c7 45 f0 60 7a 00 c0 	movl   $0xc0007a60,-0x10(%ebp)
c0003efc:	eb 0e                	jmp    c0003f0c <_Z8sys_freePv+0x3f>
c0003efe:	c7 45 f4 02 00 00 00 	movl   $0x2,-0xc(%ebp)
c0003f05:	c7 45 f0 a0 7a 00 c0 	movl   $0xc0007aa0,-0x10(%ebp)
c0003f0c:	8b 45 f0             	mov    -0x10(%ebp),%eax
c0003f0f:	83 c0 10             	add    $0x10,%eax
c0003f12:	83 ec 0c             	sub    $0xc,%esp
c0003f15:	50                   	push   %eax
c0003f16:	e8 6f 06 00 00       	call   c000458a <_ZN4lock12lock_acquireEv>
c0003f1b:	83 c4 10             	add    $0x10,%esp
c0003f1e:	8b 45 08             	mov    0x8(%ebp),%eax
c0003f21:	89 45 e8             	mov    %eax,-0x18(%ebp)
c0003f24:	83 ec 0c             	sub    $0xc,%esp
c0003f27:	ff 75 e8             	pushl  -0x18(%ebp)
c0003f2a:	e8 6f fa ff ff       	call   c000399e <_ZL11block2arenaP9mem_block>
c0003f2f:	83 c4 10             	add    $0x10,%esp
c0003f32:	89 45 e4             	mov    %eax,-0x1c(%ebp)
c0003f35:	8b 45 e4             	mov    -0x1c(%ebp),%eax
c0003f38:	8b 00                	mov    (%eax),%eax
c0003f3a:	85 c0                	test   %eax,%eax
c0003f3c:	75 28                	jne    c0003f66 <_Z8sys_freePv+0x99>
c0003f3e:	8b 45 e4             	mov    -0x1c(%ebp),%eax
c0003f41:	8b 40 08             	mov    0x8(%eax),%eax
c0003f44:	83 f8 01             	cmp    $0x1,%eax
c0003f47:	75 1d                	jne    c0003f66 <_Z8sys_freePv+0x99>
c0003f49:	8b 45 e4             	mov    -0x1c(%ebp),%eax
c0003f4c:	8b 40 04             	mov    0x4(%eax),%eax
c0003f4f:	83 ec 04             	sub    $0x4,%esp
c0003f52:	50                   	push   %eax
c0003f53:	ff 75 e4             	pushl  -0x1c(%ebp)
c0003f56:	ff 75 f4             	pushl  -0xc(%ebp)
c0003f59:	e8 88 fe ff ff       	call   c0003de6 <_Z10mfree_page10pool_flagsPvj>
c0003f5e:	83 c4 10             	add    $0x10,%esp
c0003f61:	e9 97 00 00 00       	jmp    c0003ffd <_Z8sys_freePv+0x130>
c0003f66:	8b 45 e8             	mov    -0x18(%ebp),%eax
c0003f69:	8b 55 e4             	mov    -0x1c(%ebp),%edx
c0003f6c:	8b 12                	mov    (%edx),%edx
c0003f6e:	83 c2 08             	add    $0x8,%edx
c0003f71:	83 ec 08             	sub    $0x8,%esp
c0003f74:	50                   	push   %eax
c0003f75:	52                   	push   %edx
c0003f76:	e8 69 ed ff ff       	call   c0002ce4 <_ZN4list10push_frontEP9list_elem>
c0003f7b:	83 c4 10             	add    $0x10,%esp
c0003f7e:	8b 45 e4             	mov    -0x1c(%ebp),%eax
c0003f81:	8b 40 04             	mov    0x4(%eax),%eax
c0003f84:	8d 50 01             	lea    0x1(%eax),%edx
c0003f87:	8b 45 e4             	mov    -0x1c(%ebp),%eax
c0003f8a:	89 50 04             	mov    %edx,0x4(%eax)
c0003f8d:	8b 45 e4             	mov    -0x1c(%ebp),%eax
c0003f90:	8b 50 04             	mov    0x4(%eax),%edx
c0003f93:	8b 45 e4             	mov    -0x1c(%ebp),%eax
c0003f96:	8b 00                	mov    (%eax),%eax
c0003f98:	8b 40 04             	mov    0x4(%eax),%eax
c0003f9b:	39 c2                	cmp    %eax,%edx
c0003f9d:	0f 94 c0             	sete   %al
c0003fa0:	84 c0                	test   %al,%al
c0003fa2:	74 59                	je     c0003ffd <_Z8sys_freePv+0x130>
c0003fa4:	c7 45 ec 00 00 00 00 	movl   $0x0,-0x14(%ebp)
c0003fab:	8b 45 e4             	mov    -0x1c(%ebp),%eax
c0003fae:	8b 00                	mov    (%eax),%eax
c0003fb0:	8b 40 04             	mov    0x4(%eax),%eax
c0003fb3:	3b 45 ec             	cmp    -0x14(%ebp),%eax
c0003fb6:	76 32                	jbe    c0003fea <_Z8sys_freePv+0x11d>
c0003fb8:	83 ec 08             	sub    $0x8,%esp
c0003fbb:	ff 75 ec             	pushl  -0x14(%ebp)
c0003fbe:	ff 75 e4             	pushl  -0x1c(%ebp)
c0003fc1:	e8 c0 f9 ff ff       	call   c0003986 <_ZL11arena2blockP5arenaj>
c0003fc6:	83 c4 10             	add    $0x10,%esp
c0003fc9:	89 45 e0             	mov    %eax,-0x20(%ebp)
c0003fcc:	8b 45 e0             	mov    -0x20(%ebp),%eax
c0003fcf:	8b 55 e4             	mov    -0x1c(%ebp),%edx
c0003fd2:	8b 12                	mov    (%edx),%edx
c0003fd4:	83 c2 08             	add    $0x8,%edx
c0003fd7:	83 ec 08             	sub    $0x8,%esp
c0003fda:	50                   	push   %eax
c0003fdb:	52                   	push   %edx
c0003fdc:	e8 47 ed ff ff       	call   c0002d28 <_ZN4list6removeEP9list_elem>
c0003fe1:	83 c4 10             	add    $0x10,%esp
c0003fe4:	83 45 ec 01          	addl   $0x1,-0x14(%ebp)
c0003fe8:	eb c1                	jmp    c0003fab <_Z8sys_freePv+0xde>
c0003fea:	83 ec 04             	sub    $0x4,%esp
c0003fed:	6a 01                	push   $0x1
c0003fef:	ff 75 e4             	pushl  -0x1c(%ebp)
c0003ff2:	ff 75 f4             	pushl  -0xc(%ebp)
c0003ff5:	e8 ec fd ff ff       	call   c0003de6 <_Z10mfree_page10pool_flagsPvj>
c0003ffa:	83 c4 10             	add    $0x10,%esp
c0003ffd:	8b 45 f0             	mov    -0x10(%ebp),%eax
c0004000:	83 c0 10             	add    $0x10,%eax
c0004003:	83 ec 0c             	sub    $0xc,%esp
c0004006:	50                   	push   %eax
c0004007:	e8 d8 05 00 00       	call   c00045e4 <_ZN4lock12lock_releaseEv>
c000400c:	83 c4 10             	add    $0x10,%esp
c000400f:	eb 01                	jmp    c0004012 <_Z8sys_freePv+0x145>
c0004011:	90                   	nop
c0004012:	c9                   	leave  
c0004013:	c3                   	ret    

c0004014 <_ZL13mem_pool_initj>:
c0004014:	55                   	push   %ebp
c0004015:	89 e5                	mov    %esp,%ebp
c0004017:	83 ec 38             	sub    $0x38,%esp
c000401a:	83 ec 0c             	sub    $0xc,%esp
c000401d:	68 55 57 00 c0       	push   $0xc0005755
c0004022:	e8 ba d7 ff ff       	call   c00017e1 <_Z8k_printfPKcz>
c0004027:	83 c4 10             	add    $0x10,%esp
c000402a:	c7 45 f4 00 00 10 00 	movl   $0x100000,-0xc(%ebp)
c0004031:	8b 45 f4             	mov    -0xc(%ebp),%eax
c0004034:	05 00 00 10 00       	add    $0x100000,%eax
c0004039:	89 45 f0             	mov    %eax,-0x10(%ebp)
c000403c:	8b 45 08             	mov    0x8(%ebp),%eax
c000403f:	2b 45 f0             	sub    -0x10(%ebp),%eax
c0004042:	89 45 ec             	mov    %eax,-0x14(%ebp)
c0004045:	8b 45 ec             	mov    -0x14(%ebp),%eax
c0004048:	c1 e8 0c             	shr    $0xc,%eax
c000404b:	66 89 45 ea          	mov    %ax,-0x16(%ebp)
c000404f:	0f b7 45 ea          	movzwl -0x16(%ebp),%eax
c0004053:	66 d1 e8             	shr    %ax
c0004056:	66 89 45 e8          	mov    %ax,-0x18(%ebp)
c000405a:	0f b7 45 ea          	movzwl -0x16(%ebp),%eax
c000405e:	66 2b 45 e8          	sub    -0x18(%ebp),%ax
c0004062:	66 89 45 e6          	mov    %ax,-0x1a(%ebp)
c0004066:	0f b7 45 e8          	movzwl -0x18(%ebp),%eax
c000406a:	66 c1 e8 03          	shr    $0x3,%ax
c000406e:	0f b7 c0             	movzwl %ax,%eax
c0004071:	89 45 e0             	mov    %eax,-0x20(%ebp)
c0004074:	0f b7 45 e6          	movzwl -0x1a(%ebp),%eax
c0004078:	66 c1 e8 03          	shr    $0x3,%ax
c000407c:	0f b7 c0             	movzwl %ax,%eax
c000407f:	89 45 dc             	mov    %eax,-0x24(%ebp)
c0004082:	8b 45 f0             	mov    -0x10(%ebp),%eax
c0004085:	89 45 d8             	mov    %eax,-0x28(%ebp)
c0004088:	0f b7 45 e8          	movzwl -0x18(%ebp),%eax
c000408c:	c1 e0 0c             	shl    $0xc,%eax
c000408f:	89 c2                	mov    %eax,%edx
c0004091:	8b 45 d8             	mov    -0x28(%ebp),%eax
c0004094:	01 d0                	add    %edx,%eax
c0004096:	89 45 d4             	mov    %eax,-0x2c(%ebp)
c0004099:	8b 45 d8             	mov    -0x28(%ebp),%eax
c000409c:	a3 68 7a 00 c0       	mov    %eax,0xc0007a68
c00040a1:	8b 45 d4             	mov    -0x2c(%ebp),%eax
c00040a4:	a3 a8 7a 00 c0       	mov    %eax,0xc0007aa8
c00040a9:	0f b7 45 e8          	movzwl -0x18(%ebp),%eax
c00040ad:	c1 e0 0c             	shl    $0xc,%eax
c00040b0:	a3 6c 7a 00 c0       	mov    %eax,0xc0007a6c
c00040b5:	0f b7 45 e6          	movzwl -0x1a(%ebp),%eax
c00040b9:	c1 e0 0c             	shl    $0xc,%eax
c00040bc:	a3 ac 7a 00 c0       	mov    %eax,0xc0007aac
c00040c1:	8b 45 e0             	mov    -0x20(%ebp),%eax
c00040c4:	a3 60 7a 00 c0       	mov    %eax,0xc0007a60
c00040c9:	8b 45 dc             	mov    -0x24(%ebp),%eax
c00040cc:	a3 a0 7a 00 c0       	mov    %eax,0xc0007aa0
c00040d1:	c7 05 64 7a 00 c0 00 	movl   $0xc009a000,0xc0007a64
c00040d8:	a0 09 c0 
c00040db:	8b 45 e0             	mov    -0x20(%ebp),%eax
c00040de:	2d 00 60 f6 3f       	sub    $0x3ff66000,%eax
c00040e3:	a3 a4 7a 00 c0       	mov    %eax,0xc0007aa4
c00040e8:	a1 64 7a 00 c0       	mov    0xc0007a64,%eax
c00040ed:	83 ec 08             	sub    $0x8,%esp
c00040f0:	50                   	push   %eax
c00040f1:	68 70 57 00 c0       	push   $0xc0005770
c00040f6:	e8 e6 d6 ff ff       	call   c00017e1 <_Z8k_printfPKcz>
c00040fb:	83 c4 10             	add    $0x10,%esp
c00040fe:	a1 68 7a 00 c0       	mov    0xc0007a68,%eax
c0004103:	83 ec 08             	sub    $0x8,%esp
c0004106:	50                   	push   %eax
c0004107:	68 98 57 00 c0       	push   $0xc0005798
c000410c:	e8 d0 d6 ff ff       	call   c00017e1 <_Z8k_printfPKcz>
c0004111:	83 c4 10             	add    $0x10,%esp
c0004114:	a1 a4 7a 00 c0       	mov    0xc0007aa4,%eax
c0004119:	83 ec 08             	sub    $0x8,%esp
c000411c:	50                   	push   %eax
c000411d:	68 bc 57 00 c0       	push   $0xc00057bc
c0004122:	e8 ba d6 ff ff       	call   c00017e1 <_Z8k_printfPKcz>
c0004127:	83 c4 10             	add    $0x10,%esp
c000412a:	a1 a8 7a 00 c0       	mov    0xc0007aa8,%eax
c000412f:	83 ec 08             	sub    $0x8,%esp
c0004132:	50                   	push   %eax
c0004133:	68 e0 57 00 c0       	push   $0xc00057e0
c0004138:	e8 a4 d6 ff ff       	call   c00017e1 <_Z8k_printfPKcz>
c000413d:	83 c4 10             	add    $0x10,%esp
c0004140:	83 ec 0c             	sub    $0xc,%esp
c0004143:	68 60 7a 00 c0       	push   $0xc0007a60
c0004148:	e8 1f ed ff ff       	call   c0002e6c <_ZN6bitmap4initEv>
c000414d:	83 c4 10             	add    $0x10,%esp
c0004150:	83 ec 0c             	sub    $0xc,%esp
c0004153:	68 a0 7a 00 c0       	push   $0xc0007aa0
c0004158:	e8 0f ed ff ff       	call   c0002e6c <_ZN6bitmap4initEv>
c000415d:	83 c4 10             	add    $0x10,%esp
c0004160:	8b 45 e0             	mov    -0x20(%ebp),%eax
c0004163:	a3 e0 7a 00 c0       	mov    %eax,0xc0007ae0
c0004168:	8b 55 e0             	mov    -0x20(%ebp),%edx
c000416b:	8b 45 dc             	mov    -0x24(%ebp),%eax
c000416e:	01 d0                	add    %edx,%eax
c0004170:	2d 00 60 f6 3f       	sub    $0x3ff66000,%eax
c0004175:	a3 e4 7a 00 c0       	mov    %eax,0xc0007ae4
c000417a:	c7 05 e8 7a 00 c0 00 	movl   $0xc0100000,0xc0007ae8
c0004181:	00 10 c0 
c0004184:	83 ec 0c             	sub    $0xc,%esp
c0004187:	68 e0 7a 00 c0       	push   $0xc0007ae0
c000418c:	e8 db ec ff ff       	call   c0002e6c <_ZN6bitmap4initEv>
c0004191:	83 c4 10             	add    $0x10,%esp
c0004194:	83 ec 0c             	sub    $0xc,%esp
c0004197:	68 70 7a 00 c0       	push   $0xc0007a70
c000419c:	e8 b9 03 00 00       	call   c000455a <_ZN4lock4initEv>
c00041a1:	83 c4 10             	add    $0x10,%esp
c00041a4:	83 ec 0c             	sub    $0xc,%esp
c00041a7:	68 b0 7a 00 c0       	push   $0xc0007ab0
c00041ac:	e8 a9 03 00 00       	call   c000455a <_ZN4lock4initEv>
c00041b1:	83 c4 10             	add    $0x10,%esp
c00041b4:	83 ec 0c             	sub    $0xc,%esp
c00041b7:	68 f0 7a 00 c0       	push   $0xc0007af0
c00041bc:	e8 99 03 00 00       	call   c000455a <_ZN4lock4initEv>
c00041c1:	83 c4 10             	add    $0x10,%esp
c00041c4:	a1 e4 7a 00 c0       	mov    0xc0007ae4,%eax
c00041c9:	83 ec 08             	sub    $0x8,%esp
c00041cc:	50                   	push   %eax
c00041cd:	68 00 58 00 c0       	push   $0xc0005800
c00041d2:	e8 0a d6 ff ff       	call   c00017e1 <_Z8k_printfPKcz>
c00041d7:	83 c4 10             	add    $0x10,%esp
c00041da:	a1 e8 7a 00 c0       	mov    0xc0007ae8,%eax
c00041df:	83 ec 08             	sub    $0x8,%esp
c00041e2:	50                   	push   %eax
c00041e3:	68 28 58 00 c0       	push   $0xc0005828
c00041e8:	e8 f4 d5 ff ff       	call   c00017e1 <_Z8k_printfPKcz>
c00041ed:	83 c4 10             	add    $0x10,%esp
c00041f0:	83 ec 0c             	sub    $0xc,%esp
c00041f3:	68 47 58 00 c0       	push   $0xc0005847
c00041f8:	e8 e4 d5 ff ff       	call   c00017e1 <_Z8k_printfPKcz>
c00041fd:	83 c4 10             	add    $0x10,%esp
c0004200:	90                   	nop
c0004201:	c9                   	leave  
c0004202:	c3                   	ret    

c0004203 <_Z15block_desc_initP14mem_block_desc>:
c0004203:	55                   	push   %ebp
c0004204:	89 e5                	mov    %esp,%ebp
c0004206:	53                   	push   %ebx
c0004207:	83 ec 14             	sub    $0x14,%esp
c000420a:	66 c7 45 f6 10 00    	movw   $0x10,-0xa(%ebp)
c0004210:	66 c7 45 f4 00 00    	movw   $0x0,-0xc(%ebp)
c0004216:	66 83 7d f4 06       	cmpw   $0x6,-0xc(%ebp)
c000421b:	77 79                	ja     c0004296 <_Z15block_desc_initP14mem_block_desc+0x93>
c000421d:	0f b7 45 f4          	movzwl -0xc(%ebp),%eax
c0004221:	c1 e0 02             	shl    $0x2,%eax
c0004224:	8d 14 c5 00 00 00 00 	lea    0x0(,%eax,8),%edx
c000422b:	29 c2                	sub    %eax,%edx
c000422d:	8b 45 08             	mov    0x8(%ebp),%eax
c0004230:	01 c2                	add    %eax,%edx
c0004232:	0f b7 45 f6          	movzwl -0xa(%ebp),%eax
c0004236:	89 02                	mov    %eax,(%edx)
c0004238:	0f b7 45 f4          	movzwl -0xc(%ebp),%eax
c000423c:	c1 e0 02             	shl    $0x2,%eax
c000423f:	8d 14 c5 00 00 00 00 	lea    0x0(,%eax,8),%edx
c0004246:	29 c2                	sub    %eax,%edx
c0004248:	8b 45 08             	mov    0x8(%ebp),%eax
c000424b:	8d 0c 02             	lea    (%edx,%eax,1),%ecx
c000424e:	b8 f4 0f 00 00       	mov    $0xff4,%eax
c0004253:	0f b7 5d f6          	movzwl -0xa(%ebp),%ebx
c0004257:	ba 00 00 00 00       	mov    $0x0,%edx
c000425c:	f7 f3                	div    %ebx
c000425e:	89 41 04             	mov    %eax,0x4(%ecx)
c0004261:	0f b7 45 f4          	movzwl -0xc(%ebp),%eax
c0004265:	c1 e0 02             	shl    $0x2,%eax
c0004268:	8d 14 c5 00 00 00 00 	lea    0x0(,%eax,8),%edx
c000426f:	29 c2                	sub    %eax,%edx
c0004271:	8b 45 08             	mov    0x8(%ebp),%eax
c0004274:	01 d0                	add    %edx,%eax
c0004276:	83 c0 08             	add    $0x8,%eax
c0004279:	83 ec 0c             	sub    $0xc,%esp
c000427c:	50                   	push   %eax
c000427d:	e8 d6 e9 ff ff       	call   c0002c58 <_ZN4list4initEv>
c0004282:	83 c4 10             	add    $0x10,%esp
c0004285:	66 d1 65 f6          	shlw   -0xa(%ebp)
c0004289:	0f b7 45 f4          	movzwl -0xc(%ebp),%eax
c000428d:	83 c0 01             	add    $0x1,%eax
c0004290:	66 89 45 f4          	mov    %ax,-0xc(%ebp)
c0004294:	eb 80                	jmp    c0004216 <_Z15block_desc_initP14mem_block_desc+0x13>
c0004296:	90                   	nop
c0004297:	8b 5d fc             	mov    -0x4(%ebp),%ebx
c000429a:	c9                   	leave  
c000429b:	c3                   	ret    

c000429c <_Z8mem_initv>:
c000429c:	55                   	push   %ebp
c000429d:	89 e5                	mov    %esp,%ebp
c000429f:	83 ec 18             	sub    $0x18,%esp
c00042a2:	83 ec 0c             	sub    $0xc,%esp
c00042a5:	68 5e 58 00 c0       	push   $0xc000585e
c00042aa:	e8 32 d5 ff ff       	call   c00017e1 <_Z8k_printfPKcz>
c00042af:	83 c4 10             	add    $0x10,%esp
c00042b2:	b8 00 0b 00 00       	mov    $0xb00,%eax
c00042b7:	8b 00                	mov    (%eax),%eax
c00042b9:	89 45 f4             	mov    %eax,-0xc(%ebp)
c00042bc:	83 ec 0c             	sub    $0xc,%esp
c00042bf:	68 00 7c 00 c0       	push   $0xc0007c00
c00042c4:	e8 91 02 00 00       	call   c000455a <_ZN4lock4initEv>
c00042c9:	83 c4 10             	add    $0x10,%esp
c00042cc:	83 ec 0c             	sub    $0xc,%esp
c00042cf:	ff 75 f4             	pushl  -0xc(%ebp)
c00042d2:	e8 3d fd ff ff       	call   c0004014 <_ZL13mem_pool_initj>
c00042d7:	83 c4 10             	add    $0x10,%esp
c00042da:	83 ec 0c             	sub    $0xc,%esp
c00042dd:	68 20 7b 00 c0       	push   $0xc0007b20
c00042e2:	e8 1c ff ff ff       	call   c0004203 <_Z15block_desc_initP14mem_block_desc>
c00042e7:	83 c4 10             	add    $0x10,%esp
c00042ea:	83 ec 0c             	sub    $0xc,%esp
c00042ed:	68 6e 58 00 c0       	push   $0xc000586e
c00042f2:	e8 ea d4 ff ff       	call   c00017e1 <_Z8k_printfPKcz>
c00042f7:	83 c4 10             	add    $0x10,%esp
c00042fa:	90                   	nop
c00042fb:	c9                   	leave  
c00042fc:	c3                   	ret    

c00042fd <_Z41__static_initialization_and_destruction_0ii>:
c00042fd:	55                   	push   %ebp
c00042fe:	89 e5                	mov    %esp,%ebp
c0004300:	83 ec 08             	sub    $0x8,%esp
c0004303:	83 7d 08 01          	cmpl   $0x1,0x8(%ebp)
c0004307:	75 39                	jne    c0004342 <_Z41__static_initialization_and_destruction_0ii+0x45>
c0004309:	81 7d 0c ff ff 00 00 	cmpl   $0xffff,0xc(%ebp)
c0004310:	75 30                	jne    c0004342 <_Z41__static_initialization_and_destruction_0ii+0x45>
c0004312:	83 ec 0c             	sub    $0xc,%esp
c0004315:	68 60 7a 00 c0       	push   $0xc0007a60
c000431a:	e8 41 00 00 00       	call   c0004360 <_ZN4poolC1Ev>
c000431f:	83 c4 10             	add    $0x10,%esp
c0004322:	83 ec 0c             	sub    $0xc,%esp
c0004325:	68 a0 7a 00 c0       	push   $0xc0007aa0
c000432a:	e8 31 00 00 00       	call   c0004360 <_ZN4poolC1Ev>
c000432f:	83 c4 10             	add    $0x10,%esp
c0004332:	83 ec 0c             	sub    $0xc,%esp
c0004335:	68 e0 7a 00 c0       	push   $0xc0007ae0
c000433a:	e8 21 00 00 00       	call   c0004360 <_ZN4poolC1Ev>
c000433f:	83 c4 10             	add    $0x10,%esp
c0004342:	90                   	nop
c0004343:	c9                   	leave  
c0004344:	c3                   	ret    

c0004345 <_GLOBAL__sub_I_kernel_pool>:
c0004345:	55                   	push   %ebp
c0004346:	89 e5                	mov    %esp,%ebp
c0004348:	83 ec 08             	sub    $0x8,%esp
c000434b:	83 ec 08             	sub    $0x8,%esp
c000434e:	68 ff ff 00 00       	push   $0xffff
c0004353:	6a 01                	push   $0x1
c0004355:	e8 a3 ff ff ff       	call   c00042fd <_Z41__static_initialization_and_destruction_0ii>
c000435a:	83 c4 10             	add    $0x10,%esp
c000435d:	c9                   	leave  
c000435e:	c3                   	ret    
c000435f:	90                   	nop

c0004360 <_ZN4poolC1Ev>:
c0004360:	55                   	push   %ebp
c0004361:	89 e5                	mov    %esp,%ebp
c0004363:	83 ec 08             	sub    $0x8,%esp
c0004366:	8b 45 08             	mov    0x8(%ebp),%eax
c0004369:	83 ec 0c             	sub    $0xc,%esp
c000436c:	50                   	push   %eax
c000436d:	e8 e0 ea ff ff       	call   c0002e52 <_ZN6bitmapC1Ev>
c0004372:	83 c4 10             	add    $0x10,%esp
c0004375:	8b 45 08             	mov    0x8(%ebp),%eax
c0004378:	c7 40 08 00 00 00 00 	movl   $0x0,0x8(%eax)
c000437f:	8b 45 08             	mov    0x8(%ebp),%eax
c0004382:	c7 40 0c 00 00 00 00 	movl   $0x0,0xc(%eax)
c0004389:	90                   	nop
c000438a:	c9                   	leave  
c000438b:	c3                   	ret    
c000438c:	66 90                	xchg   %ax,%ax
c000438e:	66 90                	xchg   %ax,%ax

c0004390 <switch_to>:
c0004390:	56                   	push   %esi
c0004391:	57                   	push   %edi
c0004392:	53                   	push   %ebx
c0004393:	55                   	push   %ebp
c0004394:	8b 44 24 14          	mov    0x14(%esp),%eax
c0004398:	89 20                	mov    %esp,(%eax)
c000439a:	8b 44 24 18          	mov    0x18(%esp),%eax
c000439e:	8b 20                	mov    (%eax),%esp
c00043a0:	5d                   	pop    %ebp
c00043a1:	5b                   	pop    %ebx
c00043a2:	5f                   	pop    %edi
c00043a3:	5e                   	pop    %esi
c00043a4:	c3                   	ret    

c00043a5 <_Z12console_initv>:
c00043a5:	55                   	push   %ebp
c00043a6:	89 e5                	mov    %esp,%ebp
c00043a8:	83 ec 08             	sub    $0x8,%esp
c00043ab:	83 ec 0c             	sub    $0xc,%esp
c00043ae:	68 20 7c 00 c0       	push   $0xc0007c20
c00043b3:	e8 a2 01 00 00       	call   c000455a <_ZN4lock4initEv>
c00043b8:	83 c4 10             	add    $0x10,%esp
c00043bb:	90                   	nop
c00043bc:	c9                   	leave  
c00043bd:	c3                   	ret    

c00043be <_Z15console_acquirev>:
c00043be:	55                   	push   %ebp
c00043bf:	89 e5                	mov    %esp,%ebp
c00043c1:	83 ec 08             	sub    $0x8,%esp
c00043c4:	83 ec 0c             	sub    $0xc,%esp
c00043c7:	68 20 7c 00 c0       	push   $0xc0007c20
c00043cc:	e8 b9 01 00 00       	call   c000458a <_ZN4lock12lock_acquireEv>
c00043d1:	83 c4 10             	add    $0x10,%esp
c00043d4:	90                   	nop
c00043d5:	c9                   	leave  
c00043d6:	c3                   	ret    

c00043d7 <_Z15console_releasev>:
c00043d7:	55                   	push   %ebp
c00043d8:	89 e5                	mov    %esp,%ebp
c00043da:	83 ec 08             	sub    $0x8,%esp
c00043dd:	83 ec 0c             	sub    $0xc,%esp
c00043e0:	68 20 7c 00 c0       	push   $0xc0007c20
c00043e5:	e8 fa 01 00 00       	call   c00045e4 <_ZN4lock12lock_releaseEv>
c00043ea:	83 c4 10             	add    $0x10,%esp
c00043ed:	90                   	nop
c00043ee:	c9                   	leave  
c00043ef:	c3                   	ret    

c00043f0 <_Z15console_put_strPKc>:
c00043f0:	55                   	push   %ebp
c00043f1:	89 e5                	mov    %esp,%ebp
c00043f3:	83 ec 08             	sub    $0x8,%esp
c00043f6:	e8 c3 ff ff ff       	call   c00043be <_Z15console_acquirev>
c00043fb:	83 ec 0c             	sub    $0xc,%esp
c00043fe:	ff 75 08             	pushl  0x8(%ebp)
c0004401:	e8 db d3 ff ff       	call   c00017e1 <_Z8k_printfPKcz>
c0004406:	83 c4 10             	add    $0x10,%esp
c0004409:	e8 c9 ff ff ff       	call   c00043d7 <_Z15console_releasev>
c000440e:	90                   	nop
c000440f:	c9                   	leave  
c0004410:	c3                   	ret    

c0004411 <_Z16console_put_charh>:
c0004411:	55                   	push   %ebp
c0004412:	89 e5                	mov    %esp,%ebp
c0004414:	83 ec 18             	sub    $0x18,%esp
c0004417:	8b 45 08             	mov    0x8(%ebp),%eax
c000441a:	88 45 f4             	mov    %al,-0xc(%ebp)
c000441d:	e8 9c ff ff ff       	call   c00043be <_Z15console_acquirev>
c0004422:	0f b6 45 f4          	movzbl -0xc(%ebp),%eax
c0004426:	83 ec 08             	sub    $0x8,%esp
c0004429:	50                   	push   %eax
c000442a:	68 7d 58 00 c0       	push   $0xc000587d
c000442f:	e8 ad d3 ff ff       	call   c00017e1 <_Z8k_printfPKcz>
c0004434:	83 c4 10             	add    $0x10,%esp
c0004437:	e8 9b ff ff ff       	call   c00043d7 <_Z15console_releasev>
c000443c:	90                   	nop
c000443d:	c9                   	leave  
c000443e:	c3                   	ret    

c000443f <_Z15console_put_intj>:
c000443f:	55                   	push   %ebp
c0004440:	89 e5                	mov    %esp,%ebp
c0004442:	83 ec 08             	sub    $0x8,%esp
c0004445:	e8 74 ff ff ff       	call   c00043be <_Z15console_acquirev>
c000444a:	83 ec 08             	sub    $0x8,%esp
c000444d:	ff 75 08             	pushl  0x8(%ebp)
c0004450:	68 81 58 00 c0       	push   $0xc0005881
c0004455:	e8 87 d3 ff ff       	call   c00017e1 <_Z8k_printfPKcz>
c000445a:	83 c4 10             	add    $0x10,%esp
c000445d:	e8 75 ff ff ff       	call   c00043d7 <_Z15console_releasev>
c0004462:	90                   	nop
c0004463:	c9                   	leave  
c0004464:	c3                   	ret    
c0004465:	90                   	nop

c0004466 <_ZN9semaphore4initEc>:
c0004466:	55                   	push   %ebp
c0004467:	89 e5                	mov    %esp,%ebp
c0004469:	83 ec 18             	sub    $0x18,%esp
c000446c:	8b 45 0c             	mov    0xc(%ebp),%eax
c000446f:	88 45 f4             	mov    %al,-0xc(%ebp)
c0004472:	8b 45 08             	mov    0x8(%ebp),%eax
c0004475:	0f b6 55 f4          	movzbl -0xc(%ebp),%edx
c0004479:	88 10                	mov    %dl,(%eax)
c000447b:	8b 45 08             	mov    0x8(%ebp),%eax
c000447e:	83 c0 04             	add    $0x4,%eax
c0004481:	83 ec 0c             	sub    $0xc,%esp
c0004484:	50                   	push   %eax
c0004485:	e8 ce e7 ff ff       	call   c0002c58 <_ZN4list4initEv>
c000448a:	83 c4 10             	add    $0x10,%esp
c000448d:	90                   	nop
c000448e:	c9                   	leave  
c000448f:	c3                   	ret    

c0004490 <_ZN9semaphore9sema_waitEv>:
c0004490:	55                   	push   %ebp
c0004491:	89 e5                	mov    %esp,%ebp
c0004493:	83 ec 18             	sub    $0x18,%esp
c0004496:	e8 11 e0 ff ff       	call   c00024ac <_Z12intr_disablev>
c000449b:	89 45 f4             	mov    %eax,-0xc(%ebp)
c000449e:	8b 45 08             	mov    0x8(%ebp),%eax
c00044a1:	0f b6 00             	movzbl (%eax),%eax
c00044a4:	83 e8 01             	sub    $0x1,%eax
c00044a7:	89 c2                	mov    %eax,%edx
c00044a9:	8b 45 08             	mov    0x8(%ebp),%eax
c00044ac:	88 10                	mov    %dl,(%eax)
c00044ae:	8b 45 08             	mov    0x8(%ebp),%eax
c00044b1:	0f b6 00             	movzbl (%eax),%eax
c00044b4:	84 c0                	test   %al,%al
c00044b6:	79 31                	jns    c00044e9 <_ZN9semaphore9sema_waitEv+0x59>
c00044b8:	e8 5f ec ff ff       	call   c000311c <_Z14running_threadv>
c00044bd:	89 45 f0             	mov    %eax,-0x10(%ebp)
c00044c0:	8b 45 f0             	mov    -0x10(%ebp),%eax
c00044c3:	8d 50 24             	lea    0x24(%eax),%edx
c00044c6:	8b 45 08             	mov    0x8(%ebp),%eax
c00044c9:	83 c0 04             	add    $0x4,%eax
c00044cc:	83 ec 08             	sub    $0x8,%esp
c00044cf:	52                   	push   %edx
c00044d0:	50                   	push   %eax
c00044d1:	e8 0e e8 ff ff       	call   c0002ce4 <_ZN4list10push_frontEP9list_elem>
c00044d6:	83 c4 10             	add    $0x10,%esp
c00044d9:	83 ec 08             	sub    $0x8,%esp
c00044dc:	6a 02                	push   $0x2
c00044de:	ff 75 f0             	pushl  -0x10(%ebp)
c00044e1:	e8 7e eb ff ff       	call   c0003064 <_ZN11task_struct12thread_blockE11task_status>
c00044e6:	83 c4 10             	add    $0x10,%esp
c00044e9:	83 ec 0c             	sub    $0xc,%esp
c00044ec:	ff 75 f4             	pushl  -0xc(%ebp)
c00044ef:	e8 e6 df ff ff       	call   c00024da <_Z15intr_set_status11intr_status>
c00044f4:	83 c4 10             	add    $0x10,%esp
c00044f7:	90                   	nop
c00044f8:	c9                   	leave  
c00044f9:	c3                   	ret    

c00044fa <_ZN9semaphore9sema_postEv>:
c00044fa:	55                   	push   %ebp
c00044fb:	89 e5                	mov    %esp,%ebp
c00044fd:	83 ec 18             	sub    $0x18,%esp
c0004500:	e8 a7 df ff ff       	call   c00024ac <_Z12intr_disablev>
c0004505:	89 45 f4             	mov    %eax,-0xc(%ebp)
c0004508:	8b 45 08             	mov    0x8(%ebp),%eax
c000450b:	0f b6 00             	movzbl (%eax),%eax
c000450e:	83 c0 01             	add    $0x1,%eax
c0004511:	89 c2                	mov    %eax,%edx
c0004513:	8b 45 08             	mov    0x8(%ebp),%eax
c0004516:	88 10                	mov    %dl,(%eax)
c0004518:	8b 45 08             	mov    0x8(%ebp),%eax
c000451b:	0f b6 00             	movzbl (%eax),%eax
c000451e:	84 c0                	test   %al,%al
c0004520:	7f 26                	jg     c0004548 <_ZN9semaphore9sema_postEv+0x4e>
c0004522:	8b 45 08             	mov    0x8(%ebp),%eax
c0004525:	83 c0 04             	add    $0x4,%eax
c0004528:	83 ec 0c             	sub    $0xc,%esp
c000452b:	50                   	push   %eax
c000452c:	e8 41 e8 ff ff       	call   c0002d72 <_ZN4list8pop_backEv>
c0004531:	83 c4 10             	add    $0x10,%esp
c0004534:	83 e8 24             	sub    $0x24,%eax
c0004537:	89 45 f0             	mov    %eax,-0x10(%ebp)
c000453a:	83 ec 0c             	sub    $0xc,%esp
c000453d:	ff 75 f0             	pushl  -0x10(%ebp)
c0004540:	e8 4d eb ff ff       	call   c0003092 <_ZN11task_struct14thread_unblockEv>
c0004545:	83 c4 10             	add    $0x10,%esp
c0004548:	83 ec 0c             	sub    $0xc,%esp
c000454b:	ff 75 f4             	pushl  -0xc(%ebp)
c000454e:	e8 87 df ff ff       	call   c00024da <_Z15intr_set_status11intr_status>
c0004553:	83 c4 10             	add    $0x10,%esp
c0004556:	90                   	nop
c0004557:	c9                   	leave  
c0004558:	c3                   	ret    
c0004559:	90                   	nop

c000455a <_ZN4lock4initEv>:
c000455a:	55                   	push   %ebp
c000455b:	89 e5                	mov    %esp,%ebp
c000455d:	83 ec 08             	sub    $0x8,%esp
c0004560:	8b 45 08             	mov    0x8(%ebp),%eax
c0004563:	c7 00 00 00 00 00    	movl   $0x0,(%eax)
c0004569:	8b 45 08             	mov    0x8(%ebp),%eax
c000456c:	c7 40 1c 00 00 00 00 	movl   $0x0,0x1c(%eax)
c0004573:	8b 45 08             	mov    0x8(%ebp),%eax
c0004576:	83 c0 04             	add    $0x4,%eax
c0004579:	83 ec 08             	sub    $0x8,%esp
c000457c:	6a 01                	push   $0x1
c000457e:	50                   	push   %eax
c000457f:	e8 e2 fe ff ff       	call   c0004466 <_ZN9semaphore4initEc>
c0004584:	83 c4 10             	add    $0x10,%esp
c0004587:	90                   	nop
c0004588:	c9                   	leave  
c0004589:	c3                   	ret    

c000458a <_ZN4lock12lock_acquireEv>:
c000458a:	55                   	push   %ebp
c000458b:	89 e5                	mov    %esp,%ebp
c000458d:	53                   	push   %ebx
c000458e:	83 ec 04             	sub    $0x4,%esp
c0004591:	8b 45 08             	mov    0x8(%ebp),%eax
c0004594:	8b 18                	mov    (%eax),%ebx
c0004596:	e8 81 eb ff ff       	call   c000311c <_Z14running_threadv>
c000459b:	39 c3                	cmp    %eax,%ebx
c000459d:	0f 95 c0             	setne  %al
c00045a0:	84 c0                	test   %al,%al
c00045a2:	74 2a                	je     c00045ce <_ZN4lock12lock_acquireEv+0x44>
c00045a4:	8b 45 08             	mov    0x8(%ebp),%eax
c00045a7:	83 c0 04             	add    $0x4,%eax
c00045aa:	83 ec 0c             	sub    $0xc,%esp
c00045ad:	50                   	push   %eax
c00045ae:	e8 dd fe ff ff       	call   c0004490 <_ZN9semaphore9sema_waitEv>
c00045b3:	83 c4 10             	add    $0x10,%esp
c00045b6:	e8 61 eb ff ff       	call   c000311c <_Z14running_threadv>
c00045bb:	89 c2                	mov    %eax,%edx
c00045bd:	8b 45 08             	mov    0x8(%ebp),%eax
c00045c0:	89 10                	mov    %edx,(%eax)
c00045c2:	8b 45 08             	mov    0x8(%ebp),%eax
c00045c5:	c7 40 1c 01 00 00 00 	movl   $0x1,0x1c(%eax)
c00045cc:	eb 0f                	jmp    c00045dd <_ZN4lock12lock_acquireEv+0x53>
c00045ce:	8b 45 08             	mov    0x8(%ebp),%eax
c00045d1:	8b 40 1c             	mov    0x1c(%eax),%eax
c00045d4:	8d 50 01             	lea    0x1(%eax),%edx
c00045d7:	8b 45 08             	mov    0x8(%ebp),%eax
c00045da:	89 50 1c             	mov    %edx,0x1c(%eax)
c00045dd:	90                   	nop
c00045de:	8b 5d fc             	mov    -0x4(%ebp),%ebx
c00045e1:	c9                   	leave  
c00045e2:	c3                   	ret    
c00045e3:	90                   	nop

c00045e4 <_ZN4lock12lock_releaseEv>:
c00045e4:	55                   	push   %ebp
c00045e5:	89 e5                	mov    %esp,%ebp
c00045e7:	83 ec 08             	sub    $0x8,%esp
c00045ea:	8b 45 08             	mov    0x8(%ebp),%eax
c00045ed:	8b 40 1c             	mov    0x1c(%eax),%eax
c00045f0:	83 f8 01             	cmp    $0x1,%eax
c00045f3:	76 11                	jbe    c0004606 <_ZN4lock12lock_releaseEv+0x22>
c00045f5:	8b 45 08             	mov    0x8(%ebp),%eax
c00045f8:	8b 40 1c             	mov    0x1c(%eax),%eax
c00045fb:	8d 50 ff             	lea    -0x1(%eax),%edx
c00045fe:	8b 45 08             	mov    0x8(%ebp),%eax
c0004601:	89 50 1c             	mov    %edx,0x1c(%eax)
c0004604:	eb 25                	jmp    c000462b <_ZN4lock12lock_releaseEv+0x47>
c0004606:	8b 45 08             	mov    0x8(%ebp),%eax
c0004609:	c7 00 00 00 00 00    	movl   $0x0,(%eax)
c000460f:	8b 45 08             	mov    0x8(%ebp),%eax
c0004612:	c7 40 1c 00 00 00 00 	movl   $0x0,0x1c(%eax)
c0004619:	8b 45 08             	mov    0x8(%ebp),%eax
c000461c:	83 c0 04             	add    $0x4,%eax
c000461f:	83 ec 0c             	sub    $0xc,%esp
c0004622:	50                   	push   %eax
c0004623:	e8 d2 fe ff ff       	call   c00044fa <_ZN9semaphore9sema_postEv>
c0004628:	83 c4 10             	add    $0x10,%esp
c000462b:	c9                   	leave  
c000462c:	c3                   	ret    

c000462d <_ZL3inbt>:
c000462d:	55                   	push   %ebp
c000462e:	89 e5                	mov    %esp,%ebp
c0004630:	83 ec 14             	sub    $0x14,%esp
c0004633:	8b 45 08             	mov    0x8(%ebp),%eax
c0004636:	66 89 45 ec          	mov    %ax,-0x14(%ebp)
c000463a:	0f b7 45 ec          	movzwl -0x14(%ebp),%eax
c000463e:	89 c2                	mov    %eax,%edx
c0004640:	ec                   	in     (%dx),%al
c0004641:	88 45 ff             	mov    %al,-0x1(%ebp)
c0004644:	0f b6 45 ff          	movzbl -0x1(%ebp),%eax
c0004648:	c9                   	leave  
c0004649:	c3                   	ret    

c000464a <_ZL21intr_keyboard_handlerv>:
c000464a:	55                   	push   %ebp
c000464b:	89 e5                	mov    %esp,%ebp
c000464d:	83 ec 28             	sub    $0x28,%esp
c0004650:	a1 40 7c 00 c0       	mov    0xc0007c40,%eax
c0004655:	89 45 e8             	mov    %eax,-0x18(%ebp)
c0004658:	a1 44 7c 00 c0       	mov    0xc0007c44,%eax
c000465d:	89 45 e4             	mov    %eax,-0x1c(%ebp)
c0004660:	a1 4c 7c 00 c0       	mov    0xc0007c4c,%eax
c0004665:	89 45 e0             	mov    %eax,-0x20(%ebp)
c0004668:	6a 60                	push   $0x60
c000466a:	e8 be ff ff ff       	call   c000462d <_ZL3inbt>
c000466f:	83 c4 04             	add    $0x4,%esp
c0004672:	0f b6 c0             	movzbl %al,%eax
c0004675:	66 89 45 f6          	mov    %ax,-0xa(%ebp)
c0004679:	66 81 7d f6 e0 00    	cmpw   $0xe0,-0xa(%ebp)
c000467f:	75 0f                	jne    c0004690 <_ZL21intr_keyboard_handlerv+0x46>
c0004681:	c7 05 50 7c 00 c0 01 	movl   $0x1,0xc0007c50
c0004688:	00 00 00 
c000468b:	e9 35 02 00 00       	jmp    c00048c5 <_ZL21intr_keyboard_handlerv+0x27b>
c0004690:	a1 50 7c 00 c0       	mov    0xc0007c50,%eax
c0004695:	85 c0                	test   %eax,%eax
c0004697:	74 10                	je     c00046a9 <_ZL21intr_keyboard_handlerv+0x5f>
c0004699:	66 81 4d f6 00 e0    	orw    $0xe000,-0xa(%ebp)
c000469f:	c7 05 50 7c 00 c0 00 	movl   $0x0,0xc0007c50
c00046a6:	00 00 00 
c00046a9:	0f b7 45 f6          	movzwl -0xa(%ebp),%eax
c00046ad:	25 80 00 00 00       	and    $0x80,%eax
c00046b2:	85 c0                	test   %eax,%eax
c00046b4:	0f 95 c0             	setne  %al
c00046b7:	0f b6 c0             	movzbl %al,%eax
c00046ba:	89 45 dc             	mov    %eax,-0x24(%ebp)
c00046bd:	83 7d dc 00          	cmpl   $0x0,-0x24(%ebp)
c00046c1:	74 6a                	je     c000472d <_ZL21intr_keyboard_handlerv+0xe3>
c00046c3:	66 81 65 f6 7f ff    	andw   $0xff7f,-0xa(%ebp)
c00046c9:	0f b7 45 f6          	movzwl -0xa(%ebp),%eax
c00046cd:	66 89 45 da          	mov    %ax,-0x26(%ebp)
c00046d1:	66 83 7d da 1d       	cmpw   $0x1d,-0x26(%ebp)
c00046d6:	74 08                	je     c00046e0 <_ZL21intr_keyboard_handlerv+0x96>
c00046d8:	66 81 7d da 1d e0    	cmpw   $0xe01d,-0x26(%ebp)
c00046de:	75 0c                	jne    c00046ec <_ZL21intr_keyboard_handlerv+0xa2>
c00046e0:	c7 05 40 7c 00 c0 00 	movl   $0x0,0xc0007c40
c00046e7:	00 00 00 
c00046ea:	eb 3c                	jmp    c0004728 <_ZL21intr_keyboard_handlerv+0xde>
c00046ec:	66 83 7d da 2a       	cmpw   $0x2a,-0x26(%ebp)
c00046f1:	74 07                	je     c00046fa <_ZL21intr_keyboard_handlerv+0xb0>
c00046f3:	66 83 7d da 36       	cmpw   $0x36,-0x26(%ebp)
c00046f8:	75 0c                	jne    c0004706 <_ZL21intr_keyboard_handlerv+0xbc>
c00046fa:	c7 05 44 7c 00 c0 00 	movl   $0x0,0xc0007c44
c0004701:	00 00 00 
c0004704:	eb 22                	jmp    c0004728 <_ZL21intr_keyboard_handlerv+0xde>
c0004706:	66 83 7d da 38       	cmpw   $0x38,-0x26(%ebp)
c000470b:	74 0c                	je     c0004719 <_ZL21intr_keyboard_handlerv+0xcf>
c000470d:	66 81 7d da 38 e0    	cmpw   $0xe038,-0x26(%ebp)
c0004713:	0f 85 a8 01 00 00    	jne    c00048c1 <_ZL21intr_keyboard_handlerv+0x277>
c0004719:	c7 05 48 7c 00 c0 00 	movl   $0x0,0xc0007c48
c0004720:	00 00 00 
c0004723:	e9 99 01 00 00       	jmp    c00048c1 <_ZL21intr_keyboard_handlerv+0x277>
c0004728:	e9 94 01 00 00       	jmp    c00048c1 <_ZL21intr_keyboard_handlerv+0x277>
c000472d:	66 83 7d f6 00       	cmpw   $0x0,-0xa(%ebp)
c0004732:	74 07                	je     c000473b <_ZL21intr_keyboard_handlerv+0xf1>
c0004734:	66 83 7d f6 3a       	cmpw   $0x3a,-0xa(%ebp)
c0004739:	76 14                	jbe    c000474f <_ZL21intr_keyboard_handlerv+0x105>
c000473b:	66 81 7d f6 38 e0    	cmpw   $0xe038,-0xa(%ebp)
c0004741:	74 0c                	je     c000474f <_ZL21intr_keyboard_handlerv+0x105>
c0004743:	66 81 7d f6 1d e0    	cmpw   $0xe01d,-0xa(%ebp)
c0004749:	0f 85 60 01 00 00    	jne    c00048af <_ZL21intr_keyboard_handlerv+0x265>
c000474f:	c7 45 f0 00 00 00 00 	movl   $0x0,-0x10(%ebp)
c0004756:	66 83 7d f6 0d       	cmpw   $0xd,-0xa(%ebp)
c000475b:	76 3f                	jbe    c000479c <_ZL21intr_keyboard_handlerv+0x152>
c000475d:	66 83 7d f6 29       	cmpw   $0x29,-0xa(%ebp)
c0004762:	74 38                	je     c000479c <_ZL21intr_keyboard_handlerv+0x152>
c0004764:	66 83 7d f6 1a       	cmpw   $0x1a,-0xa(%ebp)
c0004769:	74 31                	je     c000479c <_ZL21intr_keyboard_handlerv+0x152>
c000476b:	66 83 7d f6 1b       	cmpw   $0x1b,-0xa(%ebp)
c0004770:	74 2a                	je     c000479c <_ZL21intr_keyboard_handlerv+0x152>
c0004772:	66 83 7d f6 2b       	cmpw   $0x2b,-0xa(%ebp)
c0004777:	74 23                	je     c000479c <_ZL21intr_keyboard_handlerv+0x152>
c0004779:	66 83 7d f6 27       	cmpw   $0x27,-0xa(%ebp)
c000477e:	74 1c                	je     c000479c <_ZL21intr_keyboard_handlerv+0x152>
c0004780:	66 83 7d f6 28       	cmpw   $0x28,-0xa(%ebp)
c0004785:	74 15                	je     c000479c <_ZL21intr_keyboard_handlerv+0x152>
c0004787:	66 83 7d f6 33       	cmpw   $0x33,-0xa(%ebp)
c000478c:	74 0e                	je     c000479c <_ZL21intr_keyboard_handlerv+0x152>
c000478e:	66 83 7d f6 34       	cmpw   $0x34,-0xa(%ebp)
c0004793:	74 07                	je     c000479c <_ZL21intr_keyboard_handlerv+0x152>
c0004795:	66 83 7d f6 35       	cmpw   $0x35,-0xa(%ebp)
c000479a:	75 0f                	jne    c00047ab <_ZL21intr_keyboard_handlerv+0x161>
c000479c:	83 7d e4 00          	cmpl   $0x0,-0x1c(%ebp)
c00047a0:	74 3a                	je     c00047dc <_ZL21intr_keyboard_handlerv+0x192>
c00047a2:	c7 45 f0 01 00 00 00 	movl   $0x1,-0x10(%ebp)
c00047a9:	eb 31                	jmp    c00047dc <_ZL21intr_keyboard_handlerv+0x192>
c00047ab:	83 7d e4 00          	cmpl   $0x0,-0x1c(%ebp)
c00047af:	74 0f                	je     c00047c0 <_ZL21intr_keyboard_handlerv+0x176>
c00047b1:	83 7d e0 00          	cmpl   $0x0,-0x20(%ebp)
c00047b5:	74 09                	je     c00047c0 <_ZL21intr_keyboard_handlerv+0x176>
c00047b7:	c7 45 f0 00 00 00 00 	movl   $0x0,-0x10(%ebp)
c00047be:	eb 1c                	jmp    c00047dc <_ZL21intr_keyboard_handlerv+0x192>
c00047c0:	83 7d e4 00          	cmpl   $0x0,-0x1c(%ebp)
c00047c4:	75 06                	jne    c00047cc <_ZL21intr_keyboard_handlerv+0x182>
c00047c6:	83 7d e0 00          	cmpl   $0x0,-0x20(%ebp)
c00047ca:	74 09                	je     c00047d5 <_ZL21intr_keyboard_handlerv+0x18b>
c00047cc:	c7 45 f0 01 00 00 00 	movl   $0x1,-0x10(%ebp)
c00047d3:	eb 07                	jmp    c00047dc <_ZL21intr_keyboard_handlerv+0x192>
c00047d5:	c7 45 f0 00 00 00 00 	movl   $0x0,-0x10(%ebp)
c00047dc:	66 81 65 f6 ff 00    	andw   $0xff,-0xa(%ebp)
c00047e2:	0f b7 45 f6          	movzwl -0xa(%ebp),%eax
c00047e6:	88 45 d9             	mov    %al,-0x27(%ebp)
c00047e9:	0f b6 45 d9          	movzbl -0x27(%ebp),%eax
c00047ed:	8d 14 00             	lea    (%eax,%eax,1),%edx
c00047f0:	8b 45 f0             	mov    -0x10(%ebp),%eax
c00047f3:	01 d0                	add    %edx,%eax
c00047f5:	05 e0 70 00 c0       	add    $0xc00070e0,%eax
c00047fa:	0f b6 00             	movzbl (%eax),%eax
c00047fd:	88 45 ef             	mov    %al,-0x11(%ebp)
c0004800:	80 7d ef 00          	cmpb   $0x0,-0x11(%ebp)
c0004804:	74 3c                	je     c0004842 <_ZL21intr_keyboard_handlerv+0x1f8>
c0004806:	83 7d e8 00          	cmpl   $0x0,-0x18(%ebp)
c000480a:	74 06                	je     c0004812 <_ZL21intr_keyboard_handlerv+0x1c8>
c000480c:	80 7d ef 6c          	cmpb   $0x6c,-0x11(%ebp)
c0004810:	74 0c                	je     c000481e <_ZL21intr_keyboard_handlerv+0x1d4>
c0004812:	83 7d e8 00          	cmpl   $0x0,-0x18(%ebp)
c0004816:	74 10                	je     c0004828 <_ZL21intr_keyboard_handlerv+0x1de>
c0004818:	80 7d ef 75          	cmpb   $0x75,-0x11(%ebp)
c000481c:	75 0a                	jne    c0004828 <_ZL21intr_keyboard_handlerv+0x1de>
c000481e:	0f b6 45 ef          	movzbl -0x11(%ebp),%eax
c0004822:	83 e8 61             	sub    $0x61,%eax
c0004825:	88 45 ef             	mov    %al,-0x11(%ebp)
c0004828:	0f be 45 ef          	movsbl -0x11(%ebp),%eax
c000482c:	83 ec 08             	sub    $0x8,%esp
c000482f:	50                   	push   %eax
c0004830:	68 84 58 00 c0       	push   $0xc0005884
c0004835:	e8 a7 cf ff ff       	call   c00017e1 <_Z8k_printfPKcz>
c000483a:	83 c4 10             	add    $0x10,%esp
c000483d:	e9 83 00 00 00       	jmp    c00048c5 <_ZL21intr_keyboard_handlerv+0x27b>
c0004842:	66 83 7d f6 1d       	cmpw   $0x1d,-0xa(%ebp)
c0004847:	74 08                	je     c0004851 <_ZL21intr_keyboard_handlerv+0x207>
c0004849:	66 81 7d f6 1d e0    	cmpw   $0xe01d,-0xa(%ebp)
c000484f:	75 0c                	jne    c000485d <_ZL21intr_keyboard_handlerv+0x213>
c0004851:	c7 05 40 7c 00 c0 01 	movl   $0x1,0xc0007c40
c0004858:	00 00 00 
c000485b:	eb 50                	jmp    c00048ad <_ZL21intr_keyboard_handlerv+0x263>
c000485d:	66 83 7d f6 2a       	cmpw   $0x2a,-0xa(%ebp)
c0004862:	74 07                	je     c000486b <_ZL21intr_keyboard_handlerv+0x221>
c0004864:	66 83 7d f6 36       	cmpw   $0x36,-0xa(%ebp)
c0004869:	75 0c                	jne    c0004877 <_ZL21intr_keyboard_handlerv+0x22d>
c000486b:	c7 05 44 7c 00 c0 01 	movl   $0x1,0xc0007c44
c0004872:	00 00 00 
c0004875:	eb 36                	jmp    c00048ad <_ZL21intr_keyboard_handlerv+0x263>
c0004877:	66 83 7d f6 38       	cmpw   $0x38,-0xa(%ebp)
c000487c:	74 08                	je     c0004886 <_ZL21intr_keyboard_handlerv+0x23c>
c000487e:	66 81 7d f6 38 e0    	cmpw   $0xe038,-0xa(%ebp)
c0004884:	75 0c                	jne    c0004892 <_ZL21intr_keyboard_handlerv+0x248>
c0004886:	c7 05 48 7c 00 c0 01 	movl   $0x1,0xc0007c48
c000488d:	00 00 00 
c0004890:	eb 1b                	jmp    c00048ad <_ZL21intr_keyboard_handlerv+0x263>
c0004892:	66 83 7d f6 3a       	cmpw   $0x3a,-0xa(%ebp)
c0004897:	75 2b                	jne    c00048c4 <_ZL21intr_keyboard_handlerv+0x27a>
c0004899:	a1 4c 7c 00 c0       	mov    0xc0007c4c,%eax
c000489e:	85 c0                	test   %eax,%eax
c00048a0:	0f 94 c0             	sete   %al
c00048a3:	0f b6 c0             	movzbl %al,%eax
c00048a6:	a3 4c 7c 00 c0       	mov    %eax,0xc0007c4c
c00048ab:	eb 17                	jmp    c00048c4 <_ZL21intr_keyboard_handlerv+0x27a>
c00048ad:	eb 15                	jmp    c00048c4 <_ZL21intr_keyboard_handlerv+0x27a>
c00048af:	83 ec 0c             	sub    $0xc,%esp
c00048b2:	68 87 58 00 c0       	push   $0xc0005887
c00048b7:	e8 25 cf ff ff       	call   c00017e1 <_Z8k_printfPKcz>
c00048bc:	83 c4 10             	add    $0x10,%esp
c00048bf:	eb 04                	jmp    c00048c5 <_ZL21intr_keyboard_handlerv+0x27b>
c00048c1:	90                   	nop
c00048c2:	eb 01                	jmp    c00048c5 <_ZL21intr_keyboard_handlerv+0x27b>
c00048c4:	90                   	nop
c00048c5:	c9                   	leave  
c00048c6:	c3                   	ret    

c00048c7 <_Z13keyboard_initv>:
c00048c7:	55                   	push   %ebp
c00048c8:	89 e5                	mov    %esp,%ebp
c00048ca:	83 ec 08             	sub    $0x8,%esp
c00048cd:	83 ec 0c             	sub    $0xc,%esp
c00048d0:	68 94 58 00 c0       	push   $0xc0005894
c00048d5:	e8 07 cf ff ff       	call   c00017e1 <_Z8k_printfPKcz>
c00048da:	83 c4 10             	add    $0x10,%esp
c00048dd:	83 ec 08             	sub    $0x8,%esp
c00048e0:	68 4a 46 00 c0       	push   $0xc000464a
c00048e5:	6a 21                	push   $0x21
c00048e7:	e8 38 dc ff ff       	call   c0002524 <_Z16register_handlerhPv>
c00048ec:	83 c4 10             	add    $0x10,%esp
c00048ef:	83 ec 0c             	sub    $0xc,%esp
c00048f2:	68 a9 58 00 c0       	push   $0xc00058a9
c00048f7:	e8 e5 ce ff ff       	call   c00017e1 <_Z8k_printfPKcz>
c00048fc:	83 c4 10             	add    $0x10,%esp
c00048ff:	90                   	nop
c0004900:	c9                   	leave  
c0004901:	c3                   	ret    

c0004902 <_Z13start_processPv>:
c0004902:	55                   	push   %ebp
c0004903:	89 e5                	mov    %esp,%ebp
c0004905:	83 ec 18             	sub    $0x18,%esp
c0004908:	8b 45 08             	mov    0x8(%ebp),%eax
c000490b:	89 45 f4             	mov    %eax,-0xc(%ebp)
c000490e:	e8 09 e8 ff ff       	call   c000311c <_Z14running_threadv>
c0004913:	89 45 f0             	mov    %eax,-0x10(%ebp)
c0004916:	8b 45 f0             	mov    -0x10(%ebp),%eax
c0004919:	8b 00                	mov    (%eax),%eax
c000491b:	ba 80 00 00 00       	mov    $0x80,%edx
c0004920:	01 c2                	add    %eax,%edx
c0004922:	8b 45 f0             	mov    -0x10(%ebp),%eax
c0004925:	89 10                	mov    %edx,(%eax)
c0004927:	8b 45 f0             	mov    -0x10(%ebp),%eax
c000492a:	8b 00                	mov    (%eax),%eax
c000492c:	89 45 ec             	mov    %eax,-0x14(%ebp)
c000492f:	8b 45 ec             	mov    -0x14(%ebp),%eax
c0004932:	c7 40 10 00 00 00 00 	movl   $0x0,0x10(%eax)
c0004939:	8b 45 ec             	mov    -0x14(%ebp),%eax
c000493c:	8b 50 10             	mov    0x10(%eax),%edx
c000493f:	8b 45 ec             	mov    -0x14(%ebp),%eax
c0004942:	89 50 0c             	mov    %edx,0xc(%eax)
c0004945:	8b 45 ec             	mov    -0x14(%ebp),%eax
c0004948:	8b 50 0c             	mov    0xc(%eax),%edx
c000494b:	8b 45 ec             	mov    -0x14(%ebp),%eax
c000494e:	89 50 08             	mov    %edx,0x8(%eax)
c0004951:	8b 45 ec             	mov    -0x14(%ebp),%eax
c0004954:	8b 50 08             	mov    0x8(%eax),%edx
c0004957:	8b 45 ec             	mov    -0x14(%ebp),%eax
c000495a:	89 50 04             	mov    %edx,0x4(%eax)
c000495d:	8b 45 ec             	mov    -0x14(%ebp),%eax
c0004960:	c7 40 20 00 00 00 00 	movl   $0x0,0x20(%eax)
c0004967:	8b 45 ec             	mov    -0x14(%ebp),%eax
c000496a:	8b 50 20             	mov    0x20(%eax),%edx
c000496d:	8b 45 ec             	mov    -0x14(%ebp),%eax
c0004970:	89 50 1c             	mov    %edx,0x1c(%eax)
c0004973:	8b 45 ec             	mov    -0x14(%ebp),%eax
c0004976:	8b 50 1c             	mov    0x1c(%eax),%edx
c0004979:	8b 45 ec             	mov    -0x14(%ebp),%eax
c000497c:	89 50 18             	mov    %edx,0x18(%eax)
c000497f:	8b 45 ec             	mov    -0x14(%ebp),%eax
c0004982:	8b 50 18             	mov    0x18(%eax),%edx
c0004985:	8b 45 ec             	mov    -0x14(%ebp),%eax
c0004988:	89 50 14             	mov    %edx,0x14(%eax)
c000498b:	8b 45 ec             	mov    -0x14(%ebp),%eax
c000498e:	c7 40 24 00 00 00 00 	movl   $0x0,0x24(%eax)
c0004995:	8b 45 ec             	mov    -0x14(%ebp),%eax
c0004998:	c7 40 28 33 00 00 00 	movl   $0x33,0x28(%eax)
c000499f:	8b 45 ec             	mov    -0x14(%ebp),%eax
c00049a2:	8b 50 28             	mov    0x28(%eax),%edx
c00049a5:	8b 45 ec             	mov    -0x14(%ebp),%eax
c00049a8:	89 50 2c             	mov    %edx,0x2c(%eax)
c00049ab:	8b 45 ec             	mov    -0x14(%ebp),%eax
c00049ae:	8b 50 2c             	mov    0x2c(%eax),%edx
c00049b1:	8b 45 ec             	mov    -0x14(%ebp),%eax
c00049b4:	89 50 30             	mov    %edx,0x30(%eax)
c00049b7:	8b 55 f4             	mov    -0xc(%ebp),%edx
c00049ba:	8b 45 ec             	mov    -0x14(%ebp),%eax
c00049bd:	89 50 38             	mov    %edx,0x38(%eax)
c00049c0:	8b 45 ec             	mov    -0x14(%ebp),%eax
c00049c3:	c7 40 3c 2b 00 00 00 	movl   $0x2b,0x3c(%eax)
c00049ca:	8b 45 ec             	mov    -0x14(%ebp),%eax
c00049cd:	c7 40 40 02 02 00 00 	movl   $0x202,0x40(%eax)
c00049d4:	83 ec 08             	sub    $0x8,%esp
c00049d7:	68 00 f0 ff bf       	push   $0xbffff000
c00049dc:	6a 02                	push   $0x2
c00049de:	e8 94 ed ff ff       	call   c0003777 <_Z18get_designed_vaddr10pool_flagsj>
c00049e3:	83 c4 10             	add    $0x10,%esp
c00049e6:	89 45 e8             	mov    %eax,-0x18(%ebp)
c00049e9:	83 7d e8 00          	cmpl   $0x0,-0x18(%ebp)
c00049ed:	75 10                	jne    c00049ff <_Z13start_processPv+0xfd>
c00049ef:	83 ec 0c             	sub    $0xc,%esp
c00049f2:	68 c4 58 00 c0       	push   $0xc00058c4
c00049f7:	e8 e5 cd ff ff       	call   c00017e1 <_Z8k_printfPKcz>
c00049fc:	83 c4 10             	add    $0x10,%esp
c00049ff:	8b 45 e8             	mov    -0x18(%ebp),%eax
c0004a02:	05 00 10 00 00       	add    $0x1000,%eax
c0004a07:	89 c2                	mov    %eax,%edx
c0004a09:	8b 45 ec             	mov    -0x14(%ebp),%eax
c0004a0c:	89 50 44             	mov    %edx,0x44(%eax)
c0004a0f:	8b 45 ec             	mov    -0x14(%ebp),%eax
c0004a12:	c7 40 48 33 00 00 00 	movl   $0x33,0x48(%eax)
c0004a19:	8b 65 ec             	mov    -0x14(%ebp),%esp
c0004a1c:	e9 9f db ff ff       	jmp    c00025c0 <intr_exit>
c0004a21:	90                   	nop
c0004a22:	c9                   	leave  
c0004a23:	c3                   	ret    

c0004a24 <_Z17page_dir_activateP11task_struct>:
c0004a24:	55                   	push   %ebp
c0004a25:	89 e5                	mov    %esp,%ebp
c0004a27:	83 ec 18             	sub    $0x18,%esp
c0004a2a:	c7 45 f4 00 00 10 00 	movl   $0x100000,-0xc(%ebp)
c0004a31:	8b 45 08             	mov    0x8(%ebp),%eax
c0004a34:	8b 40 34             	mov    0x34(%eax),%eax
c0004a37:	85 c0                	test   %eax,%eax
c0004a39:	74 15                	je     c0004a50 <_Z17page_dir_activateP11task_struct+0x2c>
c0004a3b:	8b 45 08             	mov    0x8(%ebp),%eax
c0004a3e:	8b 40 34             	mov    0x34(%eax),%eax
c0004a41:	83 ec 0c             	sub    $0xc,%esp
c0004a44:	50                   	push   %eax
c0004a45:	e8 10 ef ff ff       	call   c000395a <_Z8addr_v2pj>
c0004a4a:	83 c4 10             	add    $0x10,%esp
c0004a4d:	89 45 f4             	mov    %eax,-0xc(%ebp)
c0004a50:	8b 45 f4             	mov    -0xc(%ebp),%eax
c0004a53:	0f 22 d8             	mov    %eax,%cr3
c0004a56:	90                   	nop
c0004a57:	c9                   	leave  
c0004a58:	c3                   	ret    

c0004a59 <_Z16process_activateP11task_struct>:
c0004a59:	55                   	push   %ebp
c0004a5a:	89 e5                	mov    %esp,%ebp
c0004a5c:	83 ec 08             	sub    $0x8,%esp
c0004a5f:	83 ec 0c             	sub    $0xc,%esp
c0004a62:	ff 75 08             	pushl  0x8(%ebp)
c0004a65:	e8 ba ff ff ff       	call   c0004a24 <_Z17page_dir_activateP11task_struct>
c0004a6a:	83 c4 10             	add    $0x10,%esp
c0004a6d:	8b 45 08             	mov    0x8(%ebp),%eax
c0004a70:	8b 40 34             	mov    0x34(%eax),%eax
c0004a73:	85 c0                	test   %eax,%eax
c0004a75:	74 0e                	je     c0004a85 <_Z16process_activateP11task_struct+0x2c>
c0004a77:	83 ec 0c             	sub    $0xc,%esp
c0004a7a:	ff 75 08             	pushl  0x8(%ebp)
c0004a7d:	e8 9a 01 00 00       	call   c0004c1c <_Z14update_tss_espP11task_struct>
c0004a82:	83 c4 10             	add    $0x10,%esp
c0004a85:	90                   	nop
c0004a86:	c9                   	leave  
c0004a87:	c3                   	ret    

c0004a88 <_Z15create_page_dirv>:
c0004a88:	55                   	push   %ebp
c0004a89:	89 e5                	mov    %esp,%ebp
c0004a8b:	83 ec 18             	sub    $0x18,%esp
c0004a8e:	83 ec 08             	sub    $0x8,%esp
c0004a91:	6a 01                	push   $0x1
c0004a93:	6a 01                	push   $0x1
c0004a95:	e8 1a eb ff ff       	call   c00035b4 <_Z11malloc_page10pool_flagsj>
c0004a9a:	83 c4 10             	add    $0x10,%esp
c0004a9d:	89 45 f4             	mov    %eax,-0xc(%ebp)
c0004aa0:	83 7d f4 00          	cmpl   $0x0,-0xc(%ebp)
c0004aa4:	75 17                	jne    c0004abd <_Z15create_page_dirv+0x35>
c0004aa6:	83 ec 0c             	sub    $0xc,%esp
c0004aa9:	68 e0 58 00 c0       	push   $0xc00058e0
c0004aae:	e8 3d f9 ff ff       	call   c00043f0 <_Z15console_put_strPKc>
c0004ab3:	83 c4 10             	add    $0x10,%esp
c0004ab6:	b8 00 00 00 00       	mov    $0x0,%eax
c0004abb:	eb 43                	jmp    c0004b00 <_Z15create_page_dirv+0x78>
c0004abd:	8b 45 f4             	mov    -0xc(%ebp),%eax
c0004ac0:	05 00 0c 00 00       	add    $0xc00,%eax
c0004ac5:	83 ec 04             	sub    $0x4,%esp
c0004ac8:	68 00 04 00 00       	push   $0x400
c0004acd:	68 00 fc ff ff       	push   $0xfffffc00
c0004ad2:	50                   	push   %eax
c0004ad3:	e8 0e d3 ff ff       	call   c0001de6 <_Z6memcpyPvS_j>
c0004ad8:	83 c4 10             	add    $0x10,%esp
c0004adb:	8b 45 f4             	mov    -0xc(%ebp),%eax
c0004ade:	83 ec 0c             	sub    $0xc,%esp
c0004ae1:	50                   	push   %eax
c0004ae2:	e8 73 ee ff ff       	call   c000395a <_Z8addr_v2pj>
c0004ae7:	83 c4 10             	add    $0x10,%esp
c0004aea:	89 45 f0             	mov    %eax,-0x10(%ebp)
c0004aed:	8b 45 f4             	mov    -0xc(%ebp),%eax
c0004af0:	05 fc 0f 00 00       	add    $0xffc,%eax
c0004af5:	8b 55 f0             	mov    -0x10(%ebp),%edx
c0004af8:	83 ca 07             	or     $0x7,%edx
c0004afb:	89 10                	mov    %edx,(%eax)
c0004afd:	8b 45 f4             	mov    -0xc(%ebp),%eax
c0004b00:	c9                   	leave  
c0004b01:	c3                   	ret    

c0004b02 <_Z24create_user_vaddr_bitmapP11task_struct>:
c0004b02:	55                   	push   %ebp
c0004b03:	89 e5                	mov    %esp,%ebp
c0004b05:	83 ec 18             	sub    $0x18,%esp
c0004b08:	8b 45 08             	mov    0x8(%ebp),%eax
c0004b0b:	83 c0 38             	add    $0x38,%eax
c0004b0e:	83 ec 0c             	sub    $0xc,%esp
c0004b11:	50                   	push   %eax
c0004b12:	e8 55 e3 ff ff       	call   c0002e6c <_ZN6bitmap4initEv>
c0004b17:	83 c4 10             	add    $0x10,%esp
c0004b1a:	8b 45 08             	mov    0x8(%ebp),%eax
c0004b1d:	c7 40 40 00 80 04 08 	movl   $0x8048000,0x40(%eax)
c0004b24:	c7 45 f4 17 00 00 00 	movl   $0x17,-0xc(%ebp)
c0004b2b:	83 ec 08             	sub    $0x8,%esp
c0004b2e:	ff 75 f4             	pushl  -0xc(%ebp)
c0004b31:	6a 01                	push   $0x1
c0004b33:	e8 7c ea ff ff       	call   c00035b4 <_Z11malloc_page10pool_flagsj>
c0004b38:	83 c4 10             	add    $0x10,%esp
c0004b3b:	89 c2                	mov    %eax,%edx
c0004b3d:	8b 45 08             	mov    0x8(%ebp),%eax
c0004b40:	89 50 3c             	mov    %edx,0x3c(%eax)
c0004b43:	8b 45 08             	mov    0x8(%ebp),%eax
c0004b46:	c7 40 38 f7 6f 01 00 	movl   $0x16ff7,0x38(%eax)
c0004b4d:	8b 45 08             	mov    0x8(%ebp),%eax
c0004b50:	83 c0 38             	add    $0x38,%eax
c0004b53:	83 ec 0c             	sub    $0xc,%esp
c0004b56:	50                   	push   %eax
c0004b57:	e8 10 e3 ff ff       	call   c0002e6c <_ZN6bitmap4initEv>
c0004b5c:	83 c4 10             	add    $0x10,%esp
c0004b5f:	90                   	nop
c0004b60:	c9                   	leave  
c0004b61:	c3                   	ret    

c0004b62 <_Z15process_executePvPc>:
c0004b62:	55                   	push   %ebp
c0004b63:	89 e5                	mov    %esp,%ebp
c0004b65:	83 ec 18             	sub    $0x18,%esp
c0004b68:	83 ec 08             	sub    $0x8,%esp
c0004b6b:	6a 01                	push   $0x1
c0004b6d:	6a 01                	push   $0x1
c0004b6f:	e8 40 ea ff ff       	call   c00035b4 <_Z11malloc_page10pool_flagsj>
c0004b74:	83 c4 10             	add    $0x10,%esp
c0004b77:	89 45 f4             	mov    %eax,-0xc(%ebp)
c0004b7a:	83 ec 08             	sub    $0x8,%esp
c0004b7d:	ff 75 f4             	pushl  -0xc(%ebp)
c0004b80:	68 09 59 00 c0       	push   $0xc0005909
c0004b85:	e8 57 cc ff ff       	call   c00017e1 <_Z8k_printfPKcz>
c0004b8a:	83 c4 10             	add    $0x10,%esp
c0004b8d:	83 ec 0c             	sub    $0xc,%esp
c0004b90:	ff 75 08             	pushl  0x8(%ebp)
c0004b93:	68 02 49 00 c0       	push   $0xc0004902
c0004b98:	6a 1f                	push   $0x1f
c0004b9a:	ff 75 0c             	pushl  0xc(%ebp)
c0004b9d:	ff 75 f4             	pushl  -0xc(%ebp)
c0004ba0:	e8 a9 e5 ff ff       	call   c000314e <_ZN11task_struct4initEPciPFvPvES1_>
c0004ba5:	83 c4 20             	add    $0x20,%esp
c0004ba8:	83 ec 0c             	sub    $0xc,%esp
c0004bab:	ff 75 f4             	pushl  -0xc(%ebp)
c0004bae:	e8 4f ff ff ff       	call   c0004b02 <_Z24create_user_vaddr_bitmapP11task_struct>
c0004bb3:	83 c4 10             	add    $0x10,%esp
c0004bb6:	e8 cd fe ff ff       	call   c0004a88 <_Z15create_page_dirv>
c0004bbb:	89 c2                	mov    %eax,%edx
c0004bbd:	8b 45 f4             	mov    -0xc(%ebp),%eax
c0004bc0:	89 50 34             	mov    %edx,0x34(%eax)
c0004bc3:	8b 45 f4             	mov    -0xc(%ebp),%eax
c0004bc6:	83 c0 68             	add    $0x68,%eax
c0004bc9:	83 ec 0c             	sub    $0xc,%esp
c0004bcc:	50                   	push   %eax
c0004bcd:	e8 31 f6 ff ff       	call   c0004203 <_Z15block_desc_initP14mem_block_desc>
c0004bd2:	83 c4 10             	add    $0x10,%esp
c0004bd5:	e8 d2 d8 ff ff       	call   c00024ac <_Z12intr_disablev>
c0004bda:	89 45 f0             	mov    %eax,-0x10(%ebp)
c0004bdd:	8b 45 f4             	mov    -0xc(%ebp),%eax
c0004be0:	83 c0 24             	add    $0x24,%eax
c0004be3:	83 ec 08             	sub    $0x8,%esp
c0004be6:	50                   	push   %eax
c0004be7:	68 e4 79 00 c0       	push   $0xc00079e4
c0004bec:	e8 f3 e0 ff ff       	call   c0002ce4 <_ZN4list10push_frontEP9list_elem>
c0004bf1:	83 c4 10             	add    $0x10,%esp
c0004bf4:	8b 45 f4             	mov    -0xc(%ebp),%eax
c0004bf7:	83 c0 2c             	add    $0x2c,%eax
c0004bfa:	83 ec 08             	sub    $0x8,%esp
c0004bfd:	50                   	push   %eax
c0004bfe:	68 f8 79 00 c0       	push   $0xc00079f8
c0004c03:	e8 dc e0 ff ff       	call   c0002ce4 <_ZN4list10push_frontEP9list_elem>
c0004c08:	83 c4 10             	add    $0x10,%esp
c0004c0b:	83 ec 0c             	sub    $0xc,%esp
c0004c0e:	ff 75 f0             	pushl  -0x10(%ebp)
c0004c11:	e8 c4 d8 ff ff       	call   c00024da <_Z15intr_set_status11intr_status>
c0004c16:	83 c4 10             	add    $0x10,%esp
c0004c19:	90                   	nop
c0004c1a:	c9                   	leave  
c0004c1b:	c3                   	ret    

c0004c1c <_Z14update_tss_espP11task_struct>:
c0004c1c:	55                   	push   %ebp
c0004c1d:	89 e5                	mov    %esp,%ebp
c0004c1f:	8b 45 08             	mov    0x8(%ebp),%eax
c0004c22:	05 00 10 00 00       	add    $0x1000,%eax
c0004c27:	a3 64 7c 00 c0       	mov    %eax,0xc0007c64
c0004c2c:	90                   	nop
c0004c2d:	5d                   	pop    %ebp
c0004c2e:	c3                   	ret    

c0004c2f <_ZL13make_gdt_descPjjhh>:
c0004c2f:	55                   	push   %ebp
c0004c30:	89 e5                	mov    %esp,%ebp
c0004c32:	83 ec 18             	sub    $0x18,%esp
c0004c35:	8b 55 14             	mov    0x14(%ebp),%edx
c0004c38:	8b 45 18             	mov    0x18(%ebp),%eax
c0004c3b:	88 55 ec             	mov    %dl,-0x14(%ebp)
c0004c3e:	88 45 e8             	mov    %al,-0x18(%ebp)
c0004c41:	8b 45 0c             	mov    0xc(%ebp),%eax
c0004c44:	89 45 fc             	mov    %eax,-0x4(%ebp)
c0004c47:	8b 45 10             	mov    0x10(%ebp),%eax
c0004c4a:	89 c2                	mov    %eax,%edx
c0004c4c:	8b 45 08             	mov    0x8(%ebp),%eax
c0004c4f:	66 89 10             	mov    %dx,(%eax)
c0004c52:	8b 45 fc             	mov    -0x4(%ebp),%eax
c0004c55:	89 c2                	mov    %eax,%edx
c0004c57:	8b 45 08             	mov    0x8(%ebp),%eax
c0004c5a:	66 89 50 02          	mov    %dx,0x2(%eax)
c0004c5e:	8b 45 fc             	mov    -0x4(%ebp),%eax
c0004c61:	25 00 00 ff 00       	and    $0xff0000,%eax
c0004c66:	c1 e8 10             	shr    $0x10,%eax
c0004c69:	89 c2                	mov    %eax,%edx
c0004c6b:	8b 45 08             	mov    0x8(%ebp),%eax
c0004c6e:	88 50 04             	mov    %dl,0x4(%eax)
c0004c71:	8b 45 08             	mov    0x8(%ebp),%eax
c0004c74:	0f b6 55 ec          	movzbl -0x14(%ebp),%edx
c0004c78:	88 50 05             	mov    %dl,0x5(%eax)
c0004c7b:	8b 45 10             	mov    0x10(%ebp),%eax
c0004c7e:	25 00 00 0f 00       	and    $0xf0000,%eax
c0004c83:	c1 e8 10             	shr    $0x10,%eax
c0004c86:	89 c2                	mov    %eax,%edx
c0004c88:	0f b6 45 e8          	movzbl -0x18(%ebp),%eax
c0004c8c:	01 c2                	add    %eax,%edx
c0004c8e:	8b 45 08             	mov    0x8(%ebp),%eax
c0004c91:	88 50 06             	mov    %dl,0x6(%eax)
c0004c94:	8b 45 fc             	mov    -0x4(%ebp),%eax
c0004c97:	c1 e8 18             	shr    $0x18,%eax
c0004c9a:	89 c2                	mov    %eax,%edx
c0004c9c:	8b 45 08             	mov    0x8(%ebp),%eax
c0004c9f:	88 50 07             	mov    %dl,0x7(%eax)
c0004ca2:	90                   	nop
c0004ca3:	8b 45 08             	mov    0x8(%ebp),%eax
c0004ca6:	c9                   	leave  
c0004ca7:	c2 04 00             	ret    $0x4

c0004caa <_Z8tss_initv>:
c0004caa:	55                   	push   %ebp
c0004cab:	89 e5                	mov    %esp,%ebp
c0004cad:	53                   	push   %ebx
c0004cae:	83 ec 24             	sub    $0x24,%esp
c0004cb1:	83 ec 0c             	sub    $0xc,%esp
c0004cb4:	68 24 59 00 c0       	push   $0xc0005924
c0004cb9:	e8 23 cb ff ff       	call   c00017e1 <_Z8k_printfPKcz>
c0004cbe:	83 c4 10             	add    $0x10,%esp
c0004cc1:	c7 45 f4 6c 00 00 00 	movl   $0x6c,-0xc(%ebp)
c0004cc8:	83 ec 04             	sub    $0x4,%esp
c0004ccb:	ff 75 f4             	pushl  -0xc(%ebp)
c0004cce:	6a 00                	push   $0x0
c0004cd0:	68 60 7c 00 c0       	push   $0xc0007c60
c0004cd5:	e8 d4 d0 ff ff       	call   c0001dae <_Z6memsetPvhj>
c0004cda:	83 c4 10             	add    $0x10,%esp
c0004cdd:	c7 05 68 7c 00 c0 10 	movl   $0x10,0xc0007c68
c0004ce4:	00 00 00 
c0004ce7:	8b 45 f4             	mov    -0xc(%ebp),%eax
c0004cea:	a3 c8 7c 00 c0       	mov    %eax,0xc0007cc8
c0004cef:	bb 20 09 00 c0       	mov    $0xc0000920,%ebx
c0004cf4:	8b 45 f4             	mov    -0xc(%ebp),%eax
c0004cf7:	8d 50 ff             	lea    -0x1(%eax),%edx
c0004cfa:	8d 45 e0             	lea    -0x20(%ebp),%eax
c0004cfd:	83 ec 0c             	sub    $0xc,%esp
c0004d00:	68 80 00 00 00       	push   $0x80
c0004d05:	68 89 00 00 00       	push   $0x89
c0004d0a:	52                   	push   %edx
c0004d0b:	68 60 7c 00 c0       	push   $0xc0007c60
c0004d10:	50                   	push   %eax
c0004d11:	e8 19 ff ff ff       	call   c0004c2f <_ZL13make_gdt_descPjjhh>
c0004d16:	83 c4 1c             	add    $0x1c,%esp
c0004d19:	8b 45 e0             	mov    -0x20(%ebp),%eax
c0004d1c:	8b 55 e4             	mov    -0x1c(%ebp),%edx
c0004d1f:	89 03                	mov    %eax,(%ebx)
c0004d21:	89 53 04             	mov    %edx,0x4(%ebx)
c0004d24:	bb 28 09 00 c0       	mov    $0xc0000928,%ebx
c0004d29:	8d 45 e0             	lea    -0x20(%ebp),%eax
c0004d2c:	83 ec 0c             	sub    $0xc,%esp
c0004d2f:	68 c0 00 00 00       	push   $0xc0
c0004d34:	68 f8 00 00 00       	push   $0xf8
c0004d39:	68 ff ff 0f 00       	push   $0xfffff
c0004d3e:	6a 00                	push   $0x0
c0004d40:	50                   	push   %eax
c0004d41:	e8 e9 fe ff ff       	call   c0004c2f <_ZL13make_gdt_descPjjhh>
c0004d46:	83 c4 1c             	add    $0x1c,%esp
c0004d49:	8b 45 e0             	mov    -0x20(%ebp),%eax
c0004d4c:	8b 55 e4             	mov    -0x1c(%ebp),%edx
c0004d4f:	89 03                	mov    %eax,(%ebx)
c0004d51:	89 53 04             	mov    %edx,0x4(%ebx)
c0004d54:	bb 30 09 00 c0       	mov    $0xc0000930,%ebx
c0004d59:	8d 45 e0             	lea    -0x20(%ebp),%eax
c0004d5c:	83 ec 0c             	sub    $0xc,%esp
c0004d5f:	68 c0 00 00 00       	push   $0xc0
c0004d64:	68 f2 00 00 00       	push   $0xf2
c0004d69:	68 ff ff 0f 00       	push   $0xfffff
c0004d6e:	6a 00                	push   $0x0
c0004d70:	50                   	push   %eax
c0004d71:	e8 b9 fe ff ff       	call   c0004c2f <_ZL13make_gdt_descPjjhh>
c0004d76:	83 c4 1c             	add    $0x1c,%esp
c0004d79:	8b 45 e0             	mov    -0x20(%ebp),%eax
c0004d7c:	8b 55 e4             	mov    -0x1c(%ebp),%edx
c0004d7f:	89 03                	mov    %eax,(%ebx)
c0004d81:	89 53 04             	mov    %edx,0x4(%ebx)
c0004d84:	c7 45 e8 37 00 00 09 	movl   $0x9000037,-0x18(%ebp)
c0004d8b:	c7 45 ec 00 c0 00 00 	movl   $0xc000,-0x14(%ebp)
c0004d92:	0f 01 55 e8          	lgdtl  -0x18(%ebp)
c0004d96:	b8 20 00 00 00       	mov    $0x20,%eax
c0004d9b:	0f 00 d8             	ltr    %ax
c0004d9e:	83 ec 0c             	sub    $0xc,%esp
c0004da1:	68 34 59 00 c0       	push   $0xc0005934
c0004da6:	e8 36 ca ff ff       	call   c00017e1 <_Z8k_printfPKcz>
c0004dab:	83 c4 10             	add    $0x10,%esp
c0004dae:	90                   	nop
c0004daf:	8b 5d fc             	mov    -0x4(%ebp),%ebx
c0004db2:	c9                   	leave  
c0004db3:	c3                   	ret    

c0004db4 <_Z6getpidv>:
c0004db4:	55                   	push   %ebp
c0004db5:	89 e5                	mov    %esp,%ebp
c0004db7:	83 ec 10             	sub    $0x10,%esp
c0004dba:	b8 00 00 00 00       	mov    $0x0,%eax
c0004dbf:	cd 80                	int    $0x80
c0004dc1:	89 45 fc             	mov    %eax,-0x4(%ebp)
c0004dc4:	8b 45 fc             	mov    -0x4(%ebp),%eax
c0004dc7:	c9                   	leave  
c0004dc8:	c3                   	ret    

c0004dc9 <_Z5writePc>:
c0004dc9:	55                   	push   %ebp
c0004dca:	89 e5                	mov    %esp,%ebp
c0004dcc:	53                   	push   %ebx
c0004dcd:	83 ec 10             	sub    $0x10,%esp
c0004dd0:	b8 01 00 00 00       	mov    $0x1,%eax
c0004dd5:	8b 55 08             	mov    0x8(%ebp),%edx
c0004dd8:	89 d3                	mov    %edx,%ebx
c0004dda:	cd 80                	int    $0x80
c0004ddc:	89 45 f8             	mov    %eax,-0x8(%ebp)
c0004ddf:	8b 45 f8             	mov    -0x8(%ebp),%eax
c0004de2:	83 c4 10             	add    $0x10,%esp
c0004de5:	5b                   	pop    %ebx
c0004de6:	5d                   	pop    %ebp
c0004de7:	c3                   	ret    

c0004de8 <_Z6mallocj>:
c0004de8:	55                   	push   %ebp
c0004de9:	89 e5                	mov    %esp,%ebp
c0004deb:	53                   	push   %ebx
c0004dec:	83 ec 10             	sub    $0x10,%esp
c0004def:	b8 02 00 00 00       	mov    $0x2,%eax
c0004df4:	8b 55 08             	mov    0x8(%ebp),%edx
c0004df7:	89 d3                	mov    %edx,%ebx
c0004df9:	cd 80                	int    $0x80
c0004dfb:	89 45 f8             	mov    %eax,-0x8(%ebp)
c0004dfe:	8b 45 f8             	mov    -0x8(%ebp),%eax
c0004e01:	83 c4 10             	add    $0x10,%esp
c0004e04:	5b                   	pop    %ebx
c0004e05:	5d                   	pop    %ebp
c0004e06:	c3                   	ret    

c0004e07 <_Z4freePv>:
c0004e07:	55                   	push   %ebp
c0004e08:	89 e5                	mov    %esp,%ebp
c0004e0a:	53                   	push   %ebx
c0004e0b:	83 ec 10             	sub    $0x10,%esp
c0004e0e:	b8 03 00 00 00       	mov    $0x3,%eax
c0004e13:	8b 55 08             	mov    0x8(%ebp),%edx
c0004e16:	89 d3                	mov    %edx,%ebx
c0004e18:	cd 80                	int    $0x80
c0004e1a:	89 45 f8             	mov    %eax,-0x8(%ebp)
c0004e1d:	90                   	nop
c0004e1e:	83 c4 10             	add    $0x10,%esp
c0004e21:	5b                   	pop    %ebx
c0004e22:	5d                   	pop    %ebp
c0004e23:	c3                   	ret    

c0004e24 <_Z10sys_getpidv>:
c0004e24:	55                   	push   %ebp
c0004e25:	89 e5                	mov    %esp,%ebp
c0004e27:	83 ec 08             	sub    $0x8,%esp
c0004e2a:	e8 ed e2 ff ff       	call   c000311c <_Z14running_threadv>
c0004e2f:	0f b7 40 04          	movzwl 0x4(%eax),%eax
c0004e33:	0f b7 c0             	movzwl %ax,%eax
c0004e36:	c9                   	leave  
c0004e37:	c3                   	ret    

c0004e38 <_Z9sys_writePc>:
c0004e38:	55                   	push   %ebp
c0004e39:	89 e5                	mov    %esp,%ebp
c0004e3b:	83 ec 08             	sub    $0x8,%esp
c0004e3e:	83 ec 0c             	sub    $0xc,%esp
c0004e41:	ff 75 08             	pushl  0x8(%ebp)
c0004e44:	e8 a7 f5 ff ff       	call   c00043f0 <_Z15console_put_strPKc>
c0004e49:	83 c4 10             	add    $0x10,%esp
c0004e4c:	83 ec 0c             	sub    $0xc,%esp
c0004e4f:	ff 75 08             	pushl  0x8(%ebp)
c0004e52:	e8 04 d0 ff ff       	call   c0001e5b <_Z6strlenPKc>
c0004e57:	83 c4 10             	add    $0x10,%esp
c0004e5a:	c9                   	leave  
c0004e5b:	c3                   	ret    

c0004e5c <_Z12syscall_initv>:
c0004e5c:	55                   	push   %ebp
c0004e5d:	89 e5                	mov    %esp,%ebp
c0004e5f:	83 ec 08             	sub    $0x8,%esp
c0004e62:	83 ec 0c             	sub    $0xc,%esp
c0004e65:	68 50 59 00 c0       	push   $0xc0005950
c0004e6a:	e8 72 c9 ff ff       	call   c00017e1 <_Z8k_printfPKcz>
c0004e6f:	83 c4 10             	add    $0x10,%esp
c0004e72:	c7 05 e0 7c 00 c0 24 	movl   $0xc0004e24,0xc0007ce0
c0004e79:	4e 00 c0 
c0004e7c:	c7 05 e4 7c 00 c0 38 	movl   $0xc0004e38,0xc0007ce4
c0004e83:	4e 00 c0 
c0004e86:	c7 05 e8 7c 00 c0 ab 	movl   $0xc00039ab,0xc0007ce8
c0004e8d:	39 00 c0 
c0004e90:	c7 05 ec 7c 00 c0 cd 	movl   $0xc0003ecd,0xc0007cec
c0004e97:	3e 00 c0 
c0004e9a:	83 ec 0c             	sub    $0xc,%esp
c0004e9d:	68 64 59 00 c0       	push   $0xc0005964
c0004ea2:	e8 3a c9 ff ff       	call   c00017e1 <_Z8k_printfPKcz>
c0004ea7:	83 c4 10             	add    $0x10,%esp
c0004eaa:	90                   	nop
c0004eab:	c9                   	leave  
c0004eac:	c3                   	ret    

c0004ead <_Z4ITOAiPci>:
c0004ead:	55                   	push   %ebp
c0004eae:	89 e5                	mov    %esp,%ebp
c0004eb0:	83 ec 20             	sub    $0x20,%esp
c0004eb3:	8b 45 0c             	mov    0xc(%ebp),%eax
c0004eb6:	89 45 fc             	mov    %eax,-0x4(%ebp)
c0004eb9:	83 7d 10 10          	cmpl   $0x10,0x10(%ebp)
c0004ebd:	75 13                	jne    c0004ed2 <_Z4ITOAiPci+0x25>
c0004ebf:	8b 45 fc             	mov    -0x4(%ebp),%eax
c0004ec2:	c6 00 30             	movb   $0x30,(%eax)
c0004ec5:	8b 45 fc             	mov    -0x4(%ebp),%eax
c0004ec8:	83 c0 01             	add    $0x1,%eax
c0004ecb:	c6 00 78             	movb   $0x78,(%eax)
c0004ece:	83 45 fc 02          	addl   $0x2,-0x4(%ebp)
c0004ed2:	83 7d 10 08          	cmpl   $0x8,0x10(%ebp)
c0004ed6:	75 0a                	jne    c0004ee2 <_Z4ITOAiPci+0x35>
c0004ed8:	8b 45 fc             	mov    -0x4(%ebp),%eax
c0004edb:	c6 00 30             	movb   $0x30,(%eax)
c0004ede:	83 45 fc 01          	addl   $0x1,-0x4(%ebp)
c0004ee2:	83 7d 08 00          	cmpl   $0x0,0x8(%ebp)
c0004ee6:	79 0f                	jns    c0004ef7 <_Z4ITOAiPci+0x4a>
c0004ee8:	8b 45 fc             	mov    -0x4(%ebp),%eax
c0004eeb:	8d 50 01             	lea    0x1(%eax),%edx
c0004eee:	89 55 fc             	mov    %edx,-0x4(%ebp)
c0004ef1:	c6 00 2d             	movb   $0x2d,(%eax)
c0004ef4:	f7 5d 08             	negl   0x8(%ebp)
c0004ef7:	8b 45 08             	mov    0x8(%ebp),%eax
c0004efa:	89 45 f4             	mov    %eax,-0xc(%ebp)
c0004efd:	8b 45 fc             	mov    -0x4(%ebp),%eax
c0004f00:	89 45 f8             	mov    %eax,-0x8(%ebp)
c0004f03:	8b 4d 10             	mov    0x10(%ebp),%ecx
c0004f06:	8b 45 f4             	mov    -0xc(%ebp),%eax
c0004f09:	ba 00 00 00 00       	mov    $0x0,%edx
c0004f0e:	f7 f1                	div    %ecx
c0004f10:	89 55 f0             	mov    %edx,-0x10(%ebp)
c0004f13:	8b 4d 10             	mov    0x10(%ebp),%ecx
c0004f16:	8b 45 f4             	mov    -0xc(%ebp),%eax
c0004f19:	ba 00 00 00 00       	mov    $0x0,%edx
c0004f1e:	f7 f1                	div    %ecx
c0004f20:	89 45 f4             	mov    %eax,-0xc(%ebp)
c0004f23:	83 7d f0 09          	cmpl   $0x9,-0x10(%ebp)
c0004f27:	76 69                	jbe    c0004f92 <_Z4ITOAiPci+0xe5>
c0004f29:	8b 45 f0             	mov    -0x10(%ebp),%eax
c0004f2c:	83 e8 0a             	sub    $0xa,%eax
c0004f2f:	83 f8 05             	cmp    $0x5,%eax
c0004f32:	77 6f                	ja     c0004fa3 <_Z4ITOAiPci+0xf6>
c0004f34:	8b 04 85 78 59 00 c0 	mov    -0x3fffa688(,%eax,4),%eax
c0004f3b:	ff e0                	jmp    *%eax
c0004f3d:	8b 45 fc             	mov    -0x4(%ebp),%eax
c0004f40:	8d 50 01             	lea    0x1(%eax),%edx
c0004f43:	89 55 fc             	mov    %edx,-0x4(%ebp)
c0004f46:	c6 00 41             	movb   $0x41,(%eax)
c0004f49:	eb 58                	jmp    c0004fa3 <_Z4ITOAiPci+0xf6>
c0004f4b:	8b 45 fc             	mov    -0x4(%ebp),%eax
c0004f4e:	8d 50 01             	lea    0x1(%eax),%edx
c0004f51:	89 55 fc             	mov    %edx,-0x4(%ebp)
c0004f54:	c6 00 42             	movb   $0x42,(%eax)
c0004f57:	eb 4a                	jmp    c0004fa3 <_Z4ITOAiPci+0xf6>
c0004f59:	8b 45 fc             	mov    -0x4(%ebp),%eax
c0004f5c:	8d 50 01             	lea    0x1(%eax),%edx
c0004f5f:	89 55 fc             	mov    %edx,-0x4(%ebp)
c0004f62:	c6 00 43             	movb   $0x43,(%eax)
c0004f65:	eb 3c                	jmp    c0004fa3 <_Z4ITOAiPci+0xf6>
c0004f67:	8b 45 fc             	mov    -0x4(%ebp),%eax
c0004f6a:	8d 50 01             	lea    0x1(%eax),%edx
c0004f6d:	89 55 fc             	mov    %edx,-0x4(%ebp)
c0004f70:	c6 00 44             	movb   $0x44,(%eax)
c0004f73:	eb 2e                	jmp    c0004fa3 <_Z4ITOAiPci+0xf6>
c0004f75:	8b 45 fc             	mov    -0x4(%ebp),%eax
c0004f78:	8d 50 01             	lea    0x1(%eax),%edx
c0004f7b:	89 55 fc             	mov    %edx,-0x4(%ebp)
c0004f7e:	c6 00 45             	movb   $0x45,(%eax)
c0004f81:	eb 20                	jmp    c0004fa3 <_Z4ITOAiPci+0xf6>
c0004f83:	8b 45 fc             	mov    -0x4(%ebp),%eax
c0004f86:	8d 50 01             	lea    0x1(%eax),%edx
c0004f89:	89 55 fc             	mov    %edx,-0x4(%ebp)
c0004f8c:	c6 00 46             	movb   $0x46,(%eax)
c0004f8f:	90                   	nop
c0004f90:	eb 11                	jmp    c0004fa3 <_Z4ITOAiPci+0xf6>
c0004f92:	8b 45 fc             	mov    -0x4(%ebp),%eax
c0004f95:	8d 50 01             	lea    0x1(%eax),%edx
c0004f98:	89 55 fc             	mov    %edx,-0x4(%ebp)
c0004f9b:	8b 55 f0             	mov    -0x10(%ebp),%edx
c0004f9e:	83 c2 30             	add    $0x30,%edx
c0004fa1:	88 10                	mov    %dl,(%eax)
c0004fa3:	83 7d f4 00          	cmpl   $0x0,-0xc(%ebp)
c0004fa7:	74 05                	je     c0004fae <_Z4ITOAiPci+0x101>
c0004fa9:	e9 55 ff ff ff       	jmp    c0004f03 <_Z4ITOAiPci+0x56>
c0004fae:	8b 55 fc             	mov    -0x4(%ebp),%edx
c0004fb1:	8b 45 0c             	mov    0xc(%ebp),%eax
c0004fb4:	29 c2                	sub    %eax,%edx
c0004fb6:	89 d0                	mov    %edx,%eax
c0004fb8:	89 45 ec             	mov    %eax,-0x14(%ebp)
c0004fbb:	83 6d fc 01          	subl   $0x1,-0x4(%ebp)
c0004fbf:	8b 45 fc             	mov    -0x4(%ebp),%eax
c0004fc2:	0f b6 00             	movzbl (%eax),%eax
c0004fc5:	88 45 eb             	mov    %al,-0x15(%ebp)
c0004fc8:	8b 45 f8             	mov    -0x8(%ebp),%eax
c0004fcb:	0f b6 10             	movzbl (%eax),%edx
c0004fce:	8b 45 fc             	mov    -0x4(%ebp),%eax
c0004fd1:	88 10                	mov    %dl,(%eax)
c0004fd3:	8b 45 f8             	mov    -0x8(%ebp),%eax
c0004fd6:	0f b6 55 eb          	movzbl -0x15(%ebp),%edx
c0004fda:	88 10                	mov    %dl,(%eax)
c0004fdc:	83 6d fc 01          	subl   $0x1,-0x4(%ebp)
c0004fe0:	83 45 f8 01          	addl   $0x1,-0x8(%ebp)
c0004fe4:	8b 45 f8             	mov    -0x8(%ebp),%eax
c0004fe7:	3b 45 fc             	cmp    -0x4(%ebp),%eax
c0004fea:	73 02                	jae    c0004fee <_Z4ITOAiPci+0x141>
c0004fec:	eb d1                	jmp    c0004fbf <_Z4ITOAiPci+0x112>
c0004fee:	8b 45 ec             	mov    -0x14(%ebp),%eax
c0004ff1:	c9                   	leave  
c0004ff2:	c3                   	ret    

c0004ff3 <_Z4ITOAjPci>:
c0004ff3:	55                   	push   %ebp
c0004ff4:	89 e5                	mov    %esp,%ebp
c0004ff6:	83 ec 20             	sub    $0x20,%esp
c0004ff9:	8b 45 0c             	mov    0xc(%ebp),%eax
c0004ffc:	89 45 fc             	mov    %eax,-0x4(%ebp)
c0004fff:	83 7d 10 10          	cmpl   $0x10,0x10(%ebp)
c0005003:	75 13                	jne    c0005018 <_Z4ITOAjPci+0x25>
c0005005:	8b 45 fc             	mov    -0x4(%ebp),%eax
c0005008:	c6 00 30             	movb   $0x30,(%eax)
c000500b:	8b 45 fc             	mov    -0x4(%ebp),%eax
c000500e:	83 c0 01             	add    $0x1,%eax
c0005011:	c6 00 78             	movb   $0x78,(%eax)
c0005014:	83 45 fc 02          	addl   $0x2,-0x4(%ebp)
c0005018:	83 7d 10 08          	cmpl   $0x8,0x10(%ebp)
c000501c:	75 0a                	jne    c0005028 <_Z4ITOAjPci+0x35>
c000501e:	8b 45 fc             	mov    -0x4(%ebp),%eax
c0005021:	c6 00 30             	movb   $0x30,(%eax)
c0005024:	83 45 fc 01          	addl   $0x1,-0x4(%ebp)
c0005028:	8b 45 08             	mov    0x8(%ebp),%eax
c000502b:	89 45 f4             	mov    %eax,-0xc(%ebp)
c000502e:	8b 45 fc             	mov    -0x4(%ebp),%eax
c0005031:	89 45 f8             	mov    %eax,-0x8(%ebp)
c0005034:	8b 4d 10             	mov    0x10(%ebp),%ecx
c0005037:	8b 45 f4             	mov    -0xc(%ebp),%eax
c000503a:	ba 00 00 00 00       	mov    $0x0,%edx
c000503f:	f7 f1                	div    %ecx
c0005041:	89 55 f0             	mov    %edx,-0x10(%ebp)
c0005044:	8b 4d 10             	mov    0x10(%ebp),%ecx
c0005047:	8b 45 f4             	mov    -0xc(%ebp),%eax
c000504a:	ba 00 00 00 00       	mov    $0x0,%edx
c000504f:	f7 f1                	div    %ecx
c0005051:	89 45 f4             	mov    %eax,-0xc(%ebp)
c0005054:	83 7d f0 09          	cmpl   $0x9,-0x10(%ebp)
c0005058:	76 69                	jbe    c00050c3 <_Z4ITOAjPci+0xd0>
c000505a:	8b 45 f0             	mov    -0x10(%ebp),%eax
c000505d:	83 e8 0a             	sub    $0xa,%eax
c0005060:	83 f8 05             	cmp    $0x5,%eax
c0005063:	77 6f                	ja     c00050d4 <_Z4ITOAjPci+0xe1>
c0005065:	8b 04 85 90 59 00 c0 	mov    -0x3fffa670(,%eax,4),%eax
c000506c:	ff e0                	jmp    *%eax
c000506e:	8b 45 fc             	mov    -0x4(%ebp),%eax
c0005071:	8d 50 01             	lea    0x1(%eax),%edx
c0005074:	89 55 fc             	mov    %edx,-0x4(%ebp)
c0005077:	c6 00 41             	movb   $0x41,(%eax)
c000507a:	eb 58                	jmp    c00050d4 <_Z4ITOAjPci+0xe1>
c000507c:	8b 45 fc             	mov    -0x4(%ebp),%eax
c000507f:	8d 50 01             	lea    0x1(%eax),%edx
c0005082:	89 55 fc             	mov    %edx,-0x4(%ebp)
c0005085:	c6 00 42             	movb   $0x42,(%eax)
c0005088:	eb 4a                	jmp    c00050d4 <_Z4ITOAjPci+0xe1>
c000508a:	8b 45 fc             	mov    -0x4(%ebp),%eax
c000508d:	8d 50 01             	lea    0x1(%eax),%edx
c0005090:	89 55 fc             	mov    %edx,-0x4(%ebp)
c0005093:	c6 00 43             	movb   $0x43,(%eax)
c0005096:	eb 3c                	jmp    c00050d4 <_Z4ITOAjPci+0xe1>
c0005098:	8b 45 fc             	mov    -0x4(%ebp),%eax
c000509b:	8d 50 01             	lea    0x1(%eax),%edx
c000509e:	89 55 fc             	mov    %edx,-0x4(%ebp)
c00050a1:	c6 00 44             	movb   $0x44,(%eax)
c00050a4:	eb 2e                	jmp    c00050d4 <_Z4ITOAjPci+0xe1>
c00050a6:	8b 45 fc             	mov    -0x4(%ebp),%eax
c00050a9:	8d 50 01             	lea    0x1(%eax),%edx
c00050ac:	89 55 fc             	mov    %edx,-0x4(%ebp)
c00050af:	c6 00 45             	movb   $0x45,(%eax)
c00050b2:	eb 20                	jmp    c00050d4 <_Z4ITOAjPci+0xe1>
c00050b4:	8b 45 fc             	mov    -0x4(%ebp),%eax
c00050b7:	8d 50 01             	lea    0x1(%eax),%edx
c00050ba:	89 55 fc             	mov    %edx,-0x4(%ebp)
c00050bd:	c6 00 46             	movb   $0x46,(%eax)
c00050c0:	90                   	nop
c00050c1:	eb 11                	jmp    c00050d4 <_Z4ITOAjPci+0xe1>
c00050c3:	8b 45 fc             	mov    -0x4(%ebp),%eax
c00050c6:	8d 50 01             	lea    0x1(%eax),%edx
c00050c9:	89 55 fc             	mov    %edx,-0x4(%ebp)
c00050cc:	8b 55 f0             	mov    -0x10(%ebp),%edx
c00050cf:	83 c2 30             	add    $0x30,%edx
c00050d2:	88 10                	mov    %dl,(%eax)
c00050d4:	83 7d f4 00          	cmpl   $0x0,-0xc(%ebp)
c00050d8:	74 05                	je     c00050df <_Z4ITOAjPci+0xec>
c00050da:	e9 55 ff ff ff       	jmp    c0005034 <_Z4ITOAjPci+0x41>
c00050df:	8b 55 fc             	mov    -0x4(%ebp),%edx
c00050e2:	8b 45 0c             	mov    0xc(%ebp),%eax
c00050e5:	29 c2                	sub    %eax,%edx
c00050e7:	89 d0                	mov    %edx,%eax
c00050e9:	89 45 ec             	mov    %eax,-0x14(%ebp)
c00050ec:	83 6d fc 01          	subl   $0x1,-0x4(%ebp)
c00050f0:	8b 45 fc             	mov    -0x4(%ebp),%eax
c00050f3:	0f b6 00             	movzbl (%eax),%eax
c00050f6:	88 45 eb             	mov    %al,-0x15(%ebp)
c00050f9:	8b 45 f8             	mov    -0x8(%ebp),%eax
c00050fc:	0f b6 10             	movzbl (%eax),%edx
c00050ff:	8b 45 fc             	mov    -0x4(%ebp),%eax
c0005102:	88 10                	mov    %dl,(%eax)
c0005104:	8b 45 f8             	mov    -0x8(%ebp),%eax
c0005107:	0f b6 55 eb          	movzbl -0x15(%ebp),%edx
c000510b:	88 10                	mov    %dl,(%eax)
c000510d:	83 6d fc 01          	subl   $0x1,-0x4(%ebp)
c0005111:	83 45 f8 01          	addl   $0x1,-0x8(%ebp)
c0005115:	8b 45 f8             	mov    -0x8(%ebp),%eax
c0005118:	3b 45 fc             	cmp    -0x4(%ebp),%eax
c000511b:	73 02                	jae    c000511f <_Z4ITOAjPci+0x12c>
c000511d:	eb d1                	jmp    c00050f0 <_Z4ITOAjPci+0xfd>
c000511f:	8b 45 ec             	mov    -0x14(%ebp),%eax
c0005122:	c9                   	leave  
c0005123:	c3                   	ret    

c0005124 <_Z6printfPKcz>:
c0005124:	55                   	push   %ebp
c0005125:	89 e5                	mov    %esp,%ebp
c0005127:	57                   	push   %edi
c0005128:	81 ec 44 04 00 00    	sub    $0x444,%esp
c000512e:	8d 95 b8 fb ff ff    	lea    -0x448(%ebp),%edx
c0005134:	b8 00 00 00 00       	mov    $0x0,%eax
c0005139:	b9 00 01 00 00       	mov    $0x100,%ecx
c000513e:	89 d7                	mov    %edx,%edi
c0005140:	f3 ab                	rep stos %eax,%es:(%edi)
c0005142:	c7 45 f4 00 00 00 00 	movl   $0x0,-0xc(%ebp)
c0005149:	8d 45 0c             	lea    0xc(%ebp),%eax
c000514c:	89 45 f0             	mov    %eax,-0x10(%ebp)
c000514f:	8b 45 08             	mov    0x8(%ebp),%eax
c0005152:	0f b6 00             	movzbl (%eax),%eax
c0005155:	84 c0                	test   %al,%al
c0005157:	0f 84 dd 01 00 00    	je     c000533a <_Z6printfPKcz+0x216>
c000515d:	8b 45 08             	mov    0x8(%ebp),%eax
c0005160:	0f b6 00             	movzbl (%eax),%eax
c0005163:	3c 25                	cmp    $0x25,%al
c0005165:	0f 85 ab 01 00 00    	jne    c0005316 <_Z6printfPKcz+0x1f2>
c000516b:	8b 45 08             	mov    0x8(%ebp),%eax
c000516e:	83 c0 01             	add    $0x1,%eax
c0005171:	0f b6 00             	movzbl (%eax),%eax
c0005174:	3c 63                	cmp    $0x63,%al
c0005176:	75 1e                	jne    c0005196 <_Z6printfPKcz+0x72>
c0005178:	8b 45 f4             	mov    -0xc(%ebp),%eax
c000517b:	8d 50 01             	lea    0x1(%eax),%edx
c000517e:	89 55 f4             	mov    %edx,-0xc(%ebp)
c0005181:	8b 55 f0             	mov    -0x10(%ebp),%edx
c0005184:	8b 12                	mov    (%edx),%edx
c0005186:	88 94 05 b8 fb ff ff 	mov    %dl,-0x448(%ebp,%eax,1)
c000518d:	83 45 f0 04          	addl   $0x4,-0x10(%ebp)
c0005191:	e9 72 01 00 00       	jmp    c0005308 <_Z6printfPKcz+0x1e4>
c0005196:	8b 45 08             	mov    0x8(%ebp),%eax
c0005199:	83 c0 01             	add    $0x1,%eax
c000519c:	0f b6 00             	movzbl (%eax),%eax
c000519f:	3c 64                	cmp    $0x64,%al
c00051a1:	74 0d                	je     c00051b0 <_Z6printfPKcz+0x8c>
c00051a3:	8b 45 08             	mov    0x8(%ebp),%eax
c00051a6:	83 c0 01             	add    $0x1,%eax
c00051a9:	0f b6 00             	movzbl (%eax),%eax
c00051ac:	3c 69                	cmp    $0x69,%al
c00051ae:	75 38                	jne    c00051e8 <_Z6printfPKcz+0xc4>
c00051b0:	8d 95 b8 fb ff ff    	lea    -0x448(%ebp),%edx
c00051b6:	8b 45 f4             	mov    -0xc(%ebp),%eax
c00051b9:	01 d0                	add    %edx,%eax
c00051bb:	89 45 c0             	mov    %eax,-0x40(%ebp)
c00051be:	8b 45 f0             	mov    -0x10(%ebp),%eax
c00051c1:	8b 00                	mov    (%eax),%eax
c00051c3:	89 45 bc             	mov    %eax,-0x44(%ebp)
c00051c6:	6a 0a                	push   $0xa
c00051c8:	ff 75 c0             	pushl  -0x40(%ebp)
c00051cb:	ff 75 bc             	pushl  -0x44(%ebp)
c00051ce:	e8 da fc ff ff       	call   c0004ead <_Z4ITOAiPci>
c00051d3:	83 c4 0c             	add    $0xc,%esp
c00051d6:	89 45 b8             	mov    %eax,-0x48(%ebp)
c00051d9:	8b 45 b8             	mov    -0x48(%ebp),%eax
c00051dc:	01 45 f4             	add    %eax,-0xc(%ebp)
c00051df:	83 45 f0 04          	addl   $0x4,-0x10(%ebp)
c00051e3:	e9 20 01 00 00       	jmp    c0005308 <_Z6printfPKcz+0x1e4>
c00051e8:	8b 45 08             	mov    0x8(%ebp),%eax
c00051eb:	83 c0 01             	add    $0x1,%eax
c00051ee:	0f b6 00             	movzbl (%eax),%eax
c00051f1:	3c 70                	cmp    $0x70,%al
c00051f3:	75 38                	jne    c000522d <_Z6printfPKcz+0x109>
c00051f5:	8d 95 b8 fb ff ff    	lea    -0x448(%ebp),%edx
c00051fb:	8b 45 f4             	mov    -0xc(%ebp),%eax
c00051fe:	01 d0                	add    %edx,%eax
c0005200:	89 45 e8             	mov    %eax,-0x18(%ebp)
c0005203:	8b 45 f0             	mov    -0x10(%ebp),%eax
c0005206:	8b 00                	mov    (%eax),%eax
c0005208:	89 45 e4             	mov    %eax,-0x1c(%ebp)
c000520b:	6a 10                	push   $0x10
c000520d:	ff 75 e8             	pushl  -0x18(%ebp)
c0005210:	ff 75 e4             	pushl  -0x1c(%ebp)
c0005213:	e8 db fd ff ff       	call   c0004ff3 <_Z4ITOAjPci>
c0005218:	83 c4 0c             	add    $0xc,%esp
c000521b:	89 45 e0             	mov    %eax,-0x20(%ebp)
c000521e:	8b 45 e0             	mov    -0x20(%ebp),%eax
c0005221:	01 45 f4             	add    %eax,-0xc(%ebp)
c0005224:	83 45 f0 04          	addl   $0x4,-0x10(%ebp)
c0005228:	e9 db 00 00 00       	jmp    c0005308 <_Z6printfPKcz+0x1e4>
c000522d:	8b 45 08             	mov    0x8(%ebp),%eax
c0005230:	83 c0 01             	add    $0x1,%eax
c0005233:	0f b6 00             	movzbl (%eax),%eax
c0005236:	3c 6f                	cmp    $0x6f,%al
c0005238:	75 38                	jne    c0005272 <_Z6printfPKcz+0x14e>
c000523a:	8d 95 b8 fb ff ff    	lea    -0x448(%ebp),%edx
c0005240:	8b 45 f4             	mov    -0xc(%ebp),%eax
c0005243:	01 d0                	add    %edx,%eax
c0005245:	89 45 dc             	mov    %eax,-0x24(%ebp)
c0005248:	8b 45 f0             	mov    -0x10(%ebp),%eax
c000524b:	8b 00                	mov    (%eax),%eax
c000524d:	89 45 d8             	mov    %eax,-0x28(%ebp)
c0005250:	6a 08                	push   $0x8
c0005252:	ff 75 dc             	pushl  -0x24(%ebp)
c0005255:	ff 75 d8             	pushl  -0x28(%ebp)
c0005258:	e8 50 fc ff ff       	call   c0004ead <_Z4ITOAiPci>
c000525d:	83 c4 0c             	add    $0xc,%esp
c0005260:	89 45 d4             	mov    %eax,-0x2c(%ebp)
c0005263:	8b 45 d4             	mov    -0x2c(%ebp),%eax
c0005266:	01 45 f4             	add    %eax,-0xc(%ebp)
c0005269:	83 45 f0 04          	addl   $0x4,-0x10(%ebp)
c000526d:	e9 96 00 00 00       	jmp    c0005308 <_Z6printfPKcz+0x1e4>
c0005272:	8b 45 08             	mov    0x8(%ebp),%eax
c0005275:	83 c0 01             	add    $0x1,%eax
c0005278:	0f b6 00             	movzbl (%eax),%eax
c000527b:	3c 78                	cmp    $0x78,%al
c000527d:	75 35                	jne    c00052b4 <_Z6printfPKcz+0x190>
c000527f:	8d 95 b8 fb ff ff    	lea    -0x448(%ebp),%edx
c0005285:	8b 45 f4             	mov    -0xc(%ebp),%eax
c0005288:	01 d0                	add    %edx,%eax
c000528a:	89 45 d0             	mov    %eax,-0x30(%ebp)
c000528d:	8b 45 f0             	mov    -0x10(%ebp),%eax
c0005290:	8b 00                	mov    (%eax),%eax
c0005292:	89 45 cc             	mov    %eax,-0x34(%ebp)
c0005295:	6a 10                	push   $0x10
c0005297:	ff 75 d0             	pushl  -0x30(%ebp)
c000529a:	ff 75 cc             	pushl  -0x34(%ebp)
c000529d:	e8 0b fc ff ff       	call   c0004ead <_Z4ITOAiPci>
c00052a2:	83 c4 0c             	add    $0xc,%esp
c00052a5:	89 45 c8             	mov    %eax,-0x38(%ebp)
c00052a8:	8b 45 c8             	mov    -0x38(%ebp),%eax
c00052ab:	01 45 f4             	add    %eax,-0xc(%ebp)
c00052ae:	83 45 f0 04          	addl   $0x4,-0x10(%ebp)
c00052b2:	eb 54                	jmp    c0005308 <_Z6printfPKcz+0x1e4>
c00052b4:	8b 45 08             	mov    0x8(%ebp),%eax
c00052b7:	83 c0 01             	add    $0x1,%eax
c00052ba:	0f b6 00             	movzbl (%eax),%eax
c00052bd:	3c 73                	cmp    $0x73,%al
c00052bf:	75 47                	jne    c0005308 <_Z6printfPKcz+0x1e4>
c00052c1:	8b 45 f0             	mov    -0x10(%ebp),%eax
c00052c4:	8b 00                	mov    (%eax),%eax
c00052c6:	89 45 c4             	mov    %eax,-0x3c(%ebp)
c00052c9:	c7 45 ec 00 00 00 00 	movl   $0x0,-0x14(%ebp)
c00052d0:	8b 55 ec             	mov    -0x14(%ebp),%edx
c00052d3:	8b 45 c4             	mov    -0x3c(%ebp),%eax
c00052d6:	01 d0                	add    %edx,%eax
c00052d8:	0f b6 00             	movzbl (%eax),%eax
c00052db:	84 c0                	test   %al,%al
c00052dd:	74 25                	je     c0005304 <_Z6printfPKcz+0x1e0>
c00052df:	8b 45 f4             	mov    -0xc(%ebp),%eax
c00052e2:	8d 50 01             	lea    0x1(%eax),%edx
c00052e5:	89 55 f4             	mov    %edx,-0xc(%ebp)
c00052e8:	8b 55 ec             	mov    -0x14(%ebp),%edx
c00052eb:	8d 4a 01             	lea    0x1(%edx),%ecx
c00052ee:	89 4d ec             	mov    %ecx,-0x14(%ebp)
c00052f1:	89 d1                	mov    %edx,%ecx
c00052f3:	8b 55 c4             	mov    -0x3c(%ebp),%edx
c00052f6:	01 ca                	add    %ecx,%edx
c00052f8:	0f b6 12             	movzbl (%edx),%edx
c00052fb:	88 94 05 b8 fb ff ff 	mov    %dl,-0x448(%ebp,%eax,1)
c0005302:	eb cc                	jmp    c00052d0 <_Z6printfPKcz+0x1ac>
c0005304:	83 45 f0 04          	addl   $0x4,-0x10(%ebp)
c0005308:	8b 45 08             	mov    0x8(%ebp),%eax
c000530b:	83 c0 02             	add    $0x2,%eax
c000530e:	89 45 08             	mov    %eax,0x8(%ebp)
c0005311:	e9 39 fe ff ff       	jmp    c000514f <_Z6printfPKcz+0x2b>
c0005316:	8b 45 f4             	mov    -0xc(%ebp),%eax
c0005319:	8d 50 01             	lea    0x1(%eax),%edx
c000531c:	89 55 f4             	mov    %edx,-0xc(%ebp)
c000531f:	8b 55 08             	mov    0x8(%ebp),%edx
c0005322:	0f b6 12             	movzbl (%edx),%edx
c0005325:	88 94 05 b8 fb ff ff 	mov    %dl,-0x448(%ebp,%eax,1)
c000532c:	8b 45 08             	mov    0x8(%ebp),%eax
c000532f:	83 c0 01             	add    $0x1,%eax
c0005332:	89 45 08             	mov    %eax,0x8(%ebp)
c0005335:	e9 15 fe ff ff       	jmp    c000514f <_Z6printfPKcz+0x2b>
c000533a:	8d 95 b8 fb ff ff    	lea    -0x448(%ebp),%edx
c0005340:	8b 45 f4             	mov    -0xc(%ebp),%eax
c0005343:	01 d0                	add    %edx,%eax
c0005345:	c6 00 00             	movb   $0x0,(%eax)
c0005348:	83 ec 0c             	sub    $0xc,%esp
c000534b:	8d 85 b8 fb ff ff    	lea    -0x448(%ebp),%eax
c0005351:	50                   	push   %eax
c0005352:	e8 72 fa ff ff       	call   c0004dc9 <_Z5writePc>
c0005357:	83 c4 10             	add    $0x10,%esp
c000535a:	90                   	nop
c000535b:	8b 7d fc             	mov    -0x4(%ebp),%edi
c000535e:	c9                   	leave  
c000535f:	c3                   	ret    
